
lcd_elf:     file format elf32-littlearm

Disassembly of section .init:

00000000 <_start>:
   0:	ea000006 	b	20 <Reset>

00000004 <HandleUndef>:
   4:	eafffffe 	b	4 <HandleUndef>

00000008 <HandleSWI>:
   8:	eafffffe 	b	8 <HandleSWI>

0000000c <HandlePrefetchAbort>:
   c:	eafffffe 	b	c <HandlePrefetchAbort>

00000010 <HandleDataAbort>:
  10:	eafffffe 	b	10 <HandleDataAbort>

00000014 <HandleNotUsed>:
  14:	eafffffe 	b	14 <HandleNotUsed>
  18:	ea000016 	b	78 <HandleIRQ>

0000001c <HandleFIQ>:
  1c:	eafffffe 	b	1c <HandleFIQ>

00000020 <Reset>:
  20:	e3a0da01 	mov	sp, #4096	; 0x1000
  24:	eb000020 	bl	ac <disable_watch_dog>
  28:	eb000023 	bl	bc <clock_init>
  2c:	eb00003c 	bl	124 <memsetup>
  30:	eb000112 	bl	480 <nand_init>
  34:	e3a00203 	mov	r0, #805306368	; 0x30000000
  38:	e3a01a01 	mov	r1, #4096	; 0x1000
  3c:	e3a02901 	mov	r2, #16384	; 0x4000
  40:	eb000066 	bl	1e0 <CopyCode2SDRAM>
  44:	eb00005a 	bl	1b4 <clean_bss>
  48:	e321f0d2 	msr	CPSR_c, #210	; 0xd2
  4c:	e3a0d431 	mov	sp, #822083584	; 0x31000000
  50:	e321f0df 	msr	CPSR_c, #223	; 0xdf
  54:	e3a0d30d 	mov	sp, #872415232	; 0x34000000
  58:	e59fe02c 	ldr	lr, [pc, #44]	; 8c <.init+0x8c>
  5c:	e59ff02c 	ldr	pc, [pc, #44]	; 90 <.init+0x90>

00000060 <ret_initled>:
  60:	e59fe02c 	ldr	lr, [pc, #44]	; 94 <.init+0x94>
  64:	e59ff02c 	ldr	pc, [pc, #44]	; 98 <.init+0x98>

00000068 <ret_initirq>:
  68:	e321f05f 	msr	CPSR_c, #95	; 0x5f
  6c:	e59fe028 	ldr	lr, [pc, #40]	; 9c <.init+0x9c>
  70:	e59ff028 	ldr	pc, [pc, #40]	; a0 <.init+0xa0>

00000074 <halt_loop>:
  74:	eafffffe 	b	74 <halt_loop>

00000078 <HandleIRQ>:
  78:	e24ee004 	sub	lr, lr, #4	; 0x4
  7c:	e92d5fff 	stmdb	sp!, {r0, r1, r2, r3, r4, r5, r6, r7, r8, r9, sl, fp, ip, lr}
  80:	e59fe01c 	ldr	lr, [pc, #28]	; a4 <.init+0xa4>
  84:	e59ff01c 	ldr	pc, [pc, #28]	; a8 <.init+0xa8>

00000088 <int_return>:
  88:	e8fd9fff 	ldmia	sp!, {r0, r1, r2, r3, r4, r5, r6, r7, r8, r9, sl, fp, ip, pc}^
  8c:	00000060 	andeq	r0, r0, r0, rrx
  90:	300000e0 	andcc	r0, r0, r0, ror #1
  94:	00000068 	andeq	r0, r0, r8, rrx
  98:	30000100 	andcc	r0, r0, r0, lsl #2
  9c:	00000074 	andeq	r0, r0, r4, ror r0
  a0:	30001a50 	andcc	r1, r0, r0, asr sl
  a4:	00000088 	andeq	r0, r0, r8, lsl #1
  a8:	30000004 	andcc	r0, r0, r4

000000ac <disable_watch_dog>:
  ac:	e3a02000 	mov	r2, #0	; 0x0
  b0:	e3a03453 	mov	r3, #1392508928	; 0x53000000
  b4:	e5832000 	str	r2, [r3]
  b8:	e1a0f00e 	mov	pc, lr

000000bc <clock_init>:
  bc:	e3a0c313 	mov	ip, #1275068416	; 0x4c000000
  c0:	e3a03003 	mov	r3, #3	; 0x3
  c4:	e52de004 	str	lr, [sp, #-4]!
  c8:	e58c3014 	str	r3, [ip, #20]
  cc:	ee111f10 	mrc	15, 0, r1, cr1, cr0, {0}
  d0:	e3811103 	orr	r1, r1, #-1073741824	; 0xc0000000
  d4:	ee011f10 	mcr	15, 0, r1, cr1, cr0, {0}
  d8:	e3a0e456 	mov	lr, #1442840576	; 0x56000000
  dc:	e59e20b0 	ldr	r2, [lr, #176]
  e0:	e3a035c9 	mov	r3, #843055104	; 0x32400000
  e4:	e3a015c9 	mov	r1, #843055104	; 0x32400000
  e8:	e2833801 	add	r3, r3, #65536	; 0x10000
  ec:	e2811801 	add	r1, r1, #65536	; 0x10000
  f0:	e3a00917 	mov	r0, #376832	; 0x5c000
  f4:	e1520003 	cmp	r2, r3
  f8:	e2800040 	add	r0, r0, #64	; 0x40
  fc:	e2811002 	add	r1, r1, #2	; 0x2
 100:	0a000005 	beq	11c <clock_init+0x60>
 104:	e59e30b0 	ldr	r3, [lr, #176]
 108:	e3a02917 	mov	r2, #376832	; 0x5c000
 10c:	e2822012 	add	r2, r2, #18	; 0x12
 110:	e1530001 	cmp	r3, r1
 114:	158c2004 	strne	r2, [ip, #4]
 118:	149df004 	ldrne	pc, [sp], #4
 11c:	e58c0004 	str	r0, [ip, #4]
 120:	e49df004 	ldr	pc, [sp], #4

00000124 <memsetup>:
 124:	e52de004 	str	lr, [sp, #-4]!
 128:	e3a01422 	mov	r1, #570425344	; 0x22000000
 12c:	e3a0c723 	mov	ip, #9175040	; 0x8c0000
 130:	e2811a11 	add	r1, r1, #69632	; 0x11000
 134:	e3a03312 	mov	r3, #1207959552	; 0x48000000
 138:	e3a02c07 	mov	r2, #1792	; 0x700
 13c:	e28cce4f 	add	ip, ip, #1264	; 0x4f0
 140:	e3a00906 	mov	r0, #98304	; 0x18000
 144:	e2811e11 	add	r1, r1, #272	; 0x110
 148:	e2800005 	add	r0, r0, #5	; 0x5
 14c:	e3a0e030 	mov	lr, #48	; 0x30
 150:	e5831000 	str	r1, [r3]
 154:	e28cc004 	add	ip, ip, #4	; 0x4
 158:	e5832004 	str	r2, [r3, #4]
 15c:	e5832008 	str	r2, [r3, #8]
 160:	e583200c 	str	r2, [r3, #12]
 164:	e5832010 	str	r2, [r3, #16]
 168:	e5832014 	str	r2, [r3, #20]
 16c:	e5832018 	str	r2, [r3, #24]
 170:	e3a020b1 	mov	r2, #177	; 0xb1
 174:	e583001c 	str	r0, [r3, #28]
 178:	e5830020 	str	r0, [r3, #32]
 17c:	e583c024 	str	ip, [r3, #36]
 180:	e5832028 	str	r2, [r3, #40]
 184:	e583e02c 	str	lr, [r3, #44]
 188:	e583e030 	str	lr, [r3, #48]
 18c:	e49df004 	ldr	pc, [sp], #4

00000190 <copy_steppingstone_to_sdram>:
 190:	e3a00eff 	mov	r0, #4080	; 0xff0
 194:	e280000f 	add	r0, r0, #15	; 0xf
 198:	e3a02000 	mov	r2, #0	; 0x0
 19c:	e3a01203 	mov	r1, #805306368	; 0x30000000
 1a0:	e4923004 	ldr	r3, [r2], #4
 1a4:	e1520000 	cmp	r2, r0
 1a8:	e4813004 	str	r3, [r1], #4
 1ac:	9afffffb 	bls	1a0 <copy_steppingstone_to_sdram+0x10>
 1b0:	e1a0f00e 	mov	pc, lr

000001b4 <clean_bss>:
 1b4:	e59f301c 	ldr	r3, [pc, #28]	; 1d8 <.init+0x1d8>
 1b8:	e59f101c 	ldr	r1, [pc, #28]	; 1dc <.init+0x1dc>
 1bc:	e1530001 	cmp	r3, r1
 1c0:	21a0f00e 	movcs	pc, lr
 1c4:	e3a02000 	mov	r2, #0	; 0x0
 1c8:	e4832004 	str	r2, [r3], #4
 1cc:	e1530001 	cmp	r3, r1
 1d0:	3afffffc 	bcc	1c8 <clean_bss+0x14>
 1d4:	e1a0f00e 	mov	pc, lr
 1d8:	300047a0 	andcc	r4, r0, r0, lsr #15
 1dc:	3000488c 	andcc	r4, r0, ip, lsl #17

000001e0 <CopyCode2SDRAM>:
 1e0:	e52de004 	str	lr, [sp, #-4]!
 1e4:	eb0000f2 	bl	5b4 <nand_read>
 1e8:	e3a00000 	mov	r0, #0	; 0x0
 1ec:	e49df004 	ldr	pc, [sp], #4
 1f0:	43434700 	cmpmi	r3, #0	; 0x0
 1f4:	4728203a 	undefined
 1f8:	2029554e 	eorcs	r5, r9, lr, asr #10
 1fc:	2e342e33 	mrccs	14, 1, r2, cr4, cr3, {1}
 200:	00000031 	andeq	r0, r0, r1, lsr r0

00000204 <s3c2410_nand_select_chip>:
 204:	e59f301c 	ldr	r3, [pc, #28]	; 228 <.init+0x228>
 208:	e5931000 	ldr	r1, [r3]
 20c:	e5912000 	ldr	r2, [r1]
 210:	e3c22b02 	bic	r2, r2, #2048	; 0x800
 214:	e5812000 	str	r2, [r1]
 218:	e3a03009 	mov	r3, #9	; 0x9
 21c:	e2533001 	subs	r3, r3, #1	; 0x1
 220:	5afffffd 	bpl	21c <s3c2410_nand_select_chip+0x18>
 224:	e1a0f00e 	mov	pc, lr
 228:	00000660 	andeq	r0, r0, r0, ror #12

0000022c <s3c2410_write_cmd>:
 22c:	e59f3008 	ldr	r3, [pc, #8]	; 23c <.init+0x23c>
 230:	e5932000 	ldr	r2, [r3]
 234:	e5c20004 	strb	r0, [r2, #4]
 238:	e1a0f00e 	mov	pc, lr
 23c:	00000660 	andeq	r0, r0, r0, ror #12

00000240 <s3c2410_wait_idle>:
 240:	e59f302c 	ldr	r3, [pc, #44]	; 274 <.init+0x274>
 244:	e5931000 	ldr	r1, [r3]
 248:	e5d12010 	ldrb	r2, [r1, #16]
 24c:	e3120001 	tst	r2, #1	; 0x1
 250:	e2811010 	add	r1, r1, #16	; 0x10
 254:	11a0f00e 	movne	pc, lr
 258:	e3a03009 	mov	r3, #9	; 0x9
 25c:	e2533001 	subs	r3, r3, #1	; 0x1
 260:	5afffffd 	bpl	25c <s3c2410_wait_idle+0x1c>
 264:	e5d13000 	ldrb	r3, [r1]
 268:	e3130001 	tst	r3, #1	; 0x1
 26c:	0afffff9 	beq	258 <s3c2410_wait_idle+0x18>
 270:	e1a0f00e 	mov	pc, lr
 274:	00000660 	andeq	r0, r0, r0, ror #12

00000278 <s3c2410_nand_deselect_chip>:
 278:	e59f3010 	ldr	r3, [pc, #16]	; 290 <.init+0x290>
 27c:	e5931000 	ldr	r1, [r3]
 280:	e5912000 	ldr	r2, [r1]
 284:	e3822b02 	orr	r2, r2, #2048	; 0x800
 288:	e5812000 	str	r2, [r1]
 28c:	e1a0f00e 	mov	pc, lr
 290:	00000660 	andeq	r0, r0, r0, ror #12

00000294 <s3c2410_nand_reset>:
 294:	e52de004 	str	lr, [sp, #-4]!
 298:	ebffffd9 	bl	204 <s3c2410_nand_select_chip>
 29c:	e3a000ff 	mov	r0, #255	; 0xff
 2a0:	ebffffe1 	bl	22c <s3c2410_write_cmd>
 2a4:	ebffffe5 	bl	240 <s3c2410_wait_idle>
 2a8:	e49de004 	ldr	lr, [sp], #4
 2ac:	eafffff1 	b	278 <s3c2410_nand_deselect_chip>

000002b0 <s3c2410_write_addr>:
 2b0:	e59f3054 	ldr	r3, [pc, #84]	; 30c <.init+0x30c>
 2b4:	e5932000 	ldr	r2, [r3]
 2b8:	e5c20008 	strb	r0, [r2, #8]
 2bc:	e3a03009 	mov	r3, #9	; 0x9
 2c0:	e2822008 	add	r2, r2, #8	; 0x8
 2c4:	e2533001 	subs	r3, r3, #1	; 0x1
 2c8:	5afffffd 	bpl	2c4 <s3c2410_write_addr+0x14>
 2cc:	e1a034a0 	mov	r3, r0, lsr #9
 2d0:	e5c23000 	strb	r3, [r2]
 2d4:	e3a03009 	mov	r3, #9	; 0x9
 2d8:	e2533001 	subs	r3, r3, #1	; 0x1
 2dc:	5afffffd 	bpl	2d8 <s3c2410_write_addr+0x28>
 2e0:	e1a038a0 	mov	r3, r0, lsr #17
 2e4:	e5c23000 	strb	r3, [r2]
 2e8:	e3a03009 	mov	r3, #9	; 0x9
 2ec:	e2533001 	subs	r3, r3, #1	; 0x1
 2f0:	5afffffd 	bpl	2ec <s3c2410_write_addr+0x3c>
 2f4:	e1a03ca0 	mov	r3, r0, lsr #25
 2f8:	e5c23000 	strb	r3, [r2]
 2fc:	e3a03009 	mov	r3, #9	; 0x9
 300:	e2533001 	subs	r3, r3, #1	; 0x1
 304:	5afffffd 	bpl	300 <s3c2410_write_addr+0x50>
 308:	e1a0f00e 	mov	pc, lr
 30c:	00000660 	andeq	r0, r0, r0, ror #12

00000310 <s3c2410_read_data>:
 310:	e59f3008 	ldr	r3, [pc, #8]	; 320 <.init+0x320>
 314:	e5932000 	ldr	r2, [r3]
 318:	e5d2000c 	ldrb	r0, [r2, #12]
 31c:	e1a0f00e 	mov	pc, lr
 320:	00000660 	andeq	r0, r0, r0, ror #12

00000324 <s3c2440_nand_select_chip>:
 324:	e59f301c 	ldr	r3, [pc, #28]	; 348 <.init+0x348>
 328:	e5931000 	ldr	r1, [r3]
 32c:	e5912004 	ldr	r2, [r1, #4]
 330:	e3c22002 	bic	r2, r2, #2	; 0x2
 334:	e5812004 	str	r2, [r1, #4]
 338:	e3a03009 	mov	r3, #9	; 0x9
 33c:	e2533001 	subs	r3, r3, #1	; 0x1
 340:	5afffffd 	bpl	33c <s3c2440_nand_select_chip+0x18>
 344:	e1a0f00e 	mov	pc, lr
 348:	0000065c 	andeq	r0, r0, ip, asr r6

0000034c <s3c2440_write_cmd>:
 34c:	e59f3008 	ldr	r3, [pc, #8]	; 35c <.init+0x35c>
 350:	e5932000 	ldr	r2, [r3]
 354:	e5c20008 	strb	r0, [r2, #8]
 358:	e1a0f00e 	mov	pc, lr
 35c:	0000065c 	andeq	r0, r0, ip, asr r6

00000360 <s3c2440_wait_idle>:
 360:	e59f302c 	ldr	r3, [pc, #44]	; 394 <.init+0x394>
 364:	e5931000 	ldr	r1, [r3]
 368:	e5d12020 	ldrb	r2, [r1, #32]
 36c:	e3120001 	tst	r2, #1	; 0x1
 370:	e2811020 	add	r1, r1, #32	; 0x20
 374:	11a0f00e 	movne	pc, lr
 378:	e3a03009 	mov	r3, #9	; 0x9
 37c:	e2533001 	subs	r3, r3, #1	; 0x1
 380:	5afffffd 	bpl	37c <s3c2440_wait_idle+0x1c>
 384:	e5d13000 	ldrb	r3, [r1]
 388:	e3130001 	tst	r3, #1	; 0x1
 38c:	0afffff9 	beq	378 <s3c2440_wait_idle+0x18>
 390:	e1a0f00e 	mov	pc, lr
 394:	0000065c 	andeq	r0, r0, ip, asr r6

00000398 <s3c2440_nand_deselect_chip>:
 398:	e59f3010 	ldr	r3, [pc, #16]	; 3b0 <.init+0x3b0>
 39c:	e5931000 	ldr	r1, [r3]
 3a0:	e5912004 	ldr	r2, [r1, #4]
 3a4:	e3822002 	orr	r2, r2, #2	; 0x2
 3a8:	e5812004 	str	r2, [r1, #4]
 3ac:	e1a0f00e 	mov	pc, lr
 3b0:	0000065c 	andeq	r0, r0, ip, asr r6

000003b4 <s3c2440_nand_reset>:
 3b4:	e52de004 	str	lr, [sp, #-4]!
 3b8:	ebffffd9 	bl	324 <s3c2440_nand_select_chip>
 3bc:	e3a000ff 	mov	r0, #255	; 0xff
 3c0:	ebffffe1 	bl	34c <s3c2440_write_cmd>
 3c4:	ebffffe5 	bl	360 <s3c2440_wait_idle>
 3c8:	e49de004 	ldr	lr, [sp], #4
 3cc:	eafffff1 	b	398 <s3c2440_nand_deselect_chip>

000003d0 <s3c2440_write_addr_lp>:
 3d0:	e59f3078 	ldr	r3, [pc, #120]	; 450 <.init+0x450>
 3d4:	e1a01a80 	mov	r1, r0, lsl #21
 3d8:	e5932000 	ldr	r2, [r3]
 3dc:	e1a01aa1 	mov	r1, r1, lsr #21
 3e0:	e3c13000 	bic	r3, r1, #0	; 0x0
 3e4:	e5c2300c 	strb	r3, [r2, #12]
 3e8:	e1a005a0 	mov	r0, r0, lsr #11
 3ec:	e282200c 	add	r2, r2, #12	; 0xc
 3f0:	e3a03009 	mov	r3, #9	; 0x9
 3f4:	e2533001 	subs	r3, r3, #1	; 0x1
 3f8:	5afffffd 	bpl	3f4 <s3c2440_write_addr_lp+0x24>
 3fc:	e1a03421 	mov	r3, r1, lsr #8
 400:	e5c23000 	strb	r3, [r2]
 404:	e3a03009 	mov	r3, #9	; 0x9
 408:	e2533001 	subs	r3, r3, #1	; 0x1
 40c:	5afffffd 	bpl	408 <s3c2440_write_addr_lp+0x38>
 410:	e5c20000 	strb	r0, [r2]
 414:	e3a03009 	mov	r3, #9	; 0x9
 418:	e2533001 	subs	r3, r3, #1	; 0x1
 41c:	5afffffd 	bpl	418 <s3c2440_write_addr_lp+0x48>
 420:	e1a03440 	mov	r3, r0, asr #8
 424:	e5c23000 	strb	r3, [r2]
 428:	e3a03009 	mov	r3, #9	; 0x9
 42c:	e2533001 	subs	r3, r3, #1	; 0x1
 430:	5afffffd 	bpl	42c <s3c2440_write_addr_lp+0x5c>
 434:	e1a03840 	mov	r3, r0, asr #16
 438:	e2033003 	and	r3, r3, #3	; 0x3
 43c:	e5c23000 	strb	r3, [r2]
 440:	e3a03009 	mov	r3, #9	; 0x9
 444:	e2533001 	subs	r3, r3, #1	; 0x1
 448:	5afffffd 	bpl	444 <s3c2440_write_addr_lp+0x74>
 44c:	e1a0f00e 	mov	pc, lr
 450:	0000065c 	andeq	r0, r0, ip, asr r6

00000454 <s3c2440_read_data>:
 454:	e59f3008 	ldr	r3, [pc, #8]	; 464 <.init+0x464>
 458:	e5932000 	ldr	r2, [r3]
 45c:	e5d20010 	ldrb	r0, [r2, #16]
 460:	e1a0f00e 	mov	pc, lr
 464:	0000065c 	andeq	r0, r0, ip, asr r6

00000468 <write_cmd>:
 468:	e52de004 	str	lr, [sp, #-4]!
 46c:	e59f3008 	ldr	r3, [pc, #8]	; 47c <.init+0x47c>
 470:	e1a0e00f 	mov	lr, pc
 474:	e593f010 	ldr	pc, [r3, #16]
 478:	e49df004 	ldr	pc, [sp], #4
 47c:	00000664 	andeq	r0, r0, r4, ror #12

00000480 <nand_init>:
 480:	e52de004 	str	lr, [sp, #-4]!
 484:	e3a0e456 	mov	lr, #1442840576	; 0x56000000
 488:	e3a035c9 	mov	r3, #843055104	; 0x32400000
 48c:	e3a015c9 	mov	r1, #843055104	; 0x32400000
 490:	e2833801 	add	r3, r3, #65536	; 0x10000
 494:	e2811801 	add	r1, r1, #65536	; 0x10000
 498:	e3a0cb26 	mov	ip, #38912	; 0x9800
 49c:	e2811002 	add	r1, r1, #2	; 0x2
 4a0:	e59f00c8 	ldr	r0, [pc, #200]	; 570 <.init+0x570>
 4a4:	e28cc030 	add	ip, ip, #48	; 0x30
 4a8:	e59e20b0 	ldr	r2, [lr, #176]
 4ac:	e1520003 	cmp	r2, r3
 4b0:	0a00001a 	beq	520 <nand_init+0xa0>
 4b4:	e59e30b0 	ldr	r3, [lr, #176]
 4b8:	e1530001 	cmp	r3, r1
 4bc:	0a000017 	beq	520 <nand_init+0xa0>
 4c0:	e59f30ac 	ldr	r3, [pc, #172]	; 574 <.init+0x574>
 4c4:	e5931000 	ldr	r1, [r3]
 4c8:	e59f00a0 	ldr	r0, [pc, #160]	; 570 <.init+0x570>
 4cc:	e3a03013 	mov	r3, #19	; 0x13
 4d0:	e59f20a0 	ldr	r2, [pc, #160]	; 578 <.init+0x578>
 4d4:	e5813004 	str	r3, [r1, #4]
 4d8:	e59f309c 	ldr	r3, [pc, #156]	; 57c <.init+0x57c>
 4dc:	e5802000 	str	r2, [r0]
 4e0:	e59f2098 	ldr	r2, [pc, #152]	; 580 <.init+0x580>
 4e4:	e5803004 	str	r3, [r0, #4]
 4e8:	e59f3094 	ldr	r3, [pc, #148]	; 584 <.init+0x584>
 4ec:	e5802008 	str	r2, [r0, #8]
 4f0:	e59f2090 	ldr	r2, [pc, #144]	; 588 <.init+0x588>
 4f4:	e580300c 	str	r3, [r0, #12]
 4f8:	e59f308c 	ldr	r3, [pc, #140]	; 58c <.init+0x58c>
 4fc:	e5802010 	str	r2, [r0, #16]
 500:	e59f2088 	ldr	r2, [pc, #136]	; 590 <.init+0x590>
 504:	e5803014 	str	r3, [r0, #20]
 508:	e3a03c03 	mov	r3, #768	; 0x300
 50c:	e5802018 	str	r2, [r0, #24]
 510:	e5813000 	str	r3, [r1]
 514:	e1a0e00f 	mov	lr, pc
 518:	e590f000 	ldr	pc, [r0]
 51c:	e49df004 	ldr	pc, [sp], #4
 520:	e59f306c 	ldr	r3, [pc, #108]	; 594 <.init+0x594>
 524:	e5932000 	ldr	r2, [r3]
 528:	e59f3068 	ldr	r3, [pc, #104]	; 598 <.init+0x598>
 52c:	e582c000 	str	ip, [r2]
 530:	e59f2064 	ldr	r2, [pc, #100]	; 59c <.init+0x59c>
 534:	e5803000 	str	r3, [r0]
 538:	e59f3060 	ldr	r3, [pc, #96]	; 5a0 <.init+0x5a0>
 53c:	e5802004 	str	r2, [r0, #4]
 540:	e59f205c 	ldr	r2, [pc, #92]	; 5a4 <.init+0x5a4>
 544:	e5803008 	str	r3, [r0, #8]
 548:	e59f3058 	ldr	r3, [pc, #88]	; 5a8 <.init+0x5a8>
 54c:	e580200c 	str	r2, [r0, #12]
 550:	e59f2054 	ldr	r2, [pc, #84]	; 5ac <.init+0x5ac>
 554:	e5803010 	str	r3, [r0, #16]
 558:	e59f3050 	ldr	r3, [pc, #80]	; 5b0 <.init+0x5b0>
 55c:	e5802014 	str	r2, [r0, #20]
 560:	e5803018 	str	r3, [r0, #24]
 564:	e1a0e00f 	mov	lr, pc
 568:	e590f000 	ldr	pc, [r0]
 56c:	e49df004 	ldr	pc, [sp], #4
 570:	00000664 	andeq	r0, r0, r4, ror #12
 574:	0000065c 	andeq	r0, r0, ip, asr r6
 578:	000003b4 	streqh	r0, [r0], -r4
 57c:	00000360 	andeq	r0, r0, r0, ror #6
 580:	00000324 	andeq	r0, r0, r4, lsr #6
 584:	00000398 	muleq	r0, r8, r3
 588:	0000034c 	andeq	r0, r0, ip, asr #6
 58c:	000003d0 	ldreqd	r0, [r0], -r0
 590:	00000454 	andeq	r0, r0, r4, asr r4
 594:	00000660 	andeq	r0, r0, r0, ror #12
 598:	00000294 	muleq	r0, r4, r2
 59c:	00000240 	andeq	r0, r0, r0, asr #4
 5a0:	00000204 	andeq	r0, r0, r4, lsl #4
 5a4:	00000278 	andeq	r0, r0, r8, ror r2
 5a8:	0000022c 	andeq	r0, r0, ip, lsr #4
 5ac:	000002b0 	streqh	r0, [r0], -r0
 5b0:	00000310 	andeq	r0, r0, r0, lsl r3

000005b4 <nand_read>:
 5b4:	e1a03a81 	mov	r3, r1, lsl #21
 5b8:	e1a03aa3 	mov	r3, r3, lsr #21
 5bc:	e3530000 	cmp	r3, #0	; 0x0
 5c0:	e92d41f0 	stmdb	sp!, {r4, r5, r6, r7, r8, lr}
 5c4:	e1a05001 	mov	r5, r1
 5c8:	e1a06000 	mov	r6, r0
 5cc:	e1a04002 	mov	r4, r2
 5d0:	18bd81f0 	ldmneia	sp!, {r4, r5, r6, r7, r8, pc}
 5d4:	e1a03a82 	mov	r3, r2, lsl #21
 5d8:	e1a03aa3 	mov	r3, r3, lsr #21
 5dc:	e3530000 	cmp	r3, #0	; 0x0
 5e0:	18bd81f0 	ldmneia	sp!, {r4, r5, r6, r7, r8, pc}
 5e4:	e59f706c 	ldr	r7, [pc, #108]	; 658 <.init+0x658>
 5e8:	e1a0e00f 	mov	lr, pc
 5ec:	e597f008 	ldr	pc, [r7, #8]
 5f0:	e3a03009 	mov	r3, #9	; 0x9
 5f4:	e2533001 	subs	r3, r3, #1	; 0x1
 5f8:	5afffffd 	bpl	5f4 <nand_read+0x40>
 5fc:	e0858004 	add	r8, r5, r4
 600:	e1550008 	cmp	r5, r8
 604:	2a000010 	bcs	64c <nand_read+0x98>
 608:	e3a00000 	mov	r0, #0	; 0x0
 60c:	ebffff95 	bl	468 <write_cmd>
 610:	e1a00005 	mov	r0, r5
 614:	e1a0e00f 	mov	lr, pc
 618:	e597f014 	ldr	pc, [r7, #20]
 61c:	e3a00030 	mov	r0, #48	; 0x30
 620:	ebffff90 	bl	468 <write_cmd>
 624:	e1a0e00f 	mov	lr, pc
 628:	e597f004 	ldr	pc, [r7, #4]
 62c:	e3a04b02 	mov	r4, #2048	; 0x800
 630:	e1a0e00f 	mov	lr, pc
 634:	e597f018 	ldr	pc, [r7, #24]
 638:	e2544001 	subs	r4, r4, #1	; 0x1
 63c:	e4c60001 	strb	r0, [r6], #1
 640:	e2855001 	add	r5, r5, #1	; 0x1
 644:	1afffff9 	bne	630 <nand_read+0x7c>
 648:	eaffffec 	b	600 <nand_read+0x4c>
 64c:	e1a0e00f 	mov	lr, pc
 650:	e597f00c 	ldr	pc, [r7, #12]
 654:	e8bd81f0 	ldmia	sp!, {r4, r5, r6, r7, r8, pc}
 658:	00000664 	andeq	r0, r0, r4, ror #12

0000065c <s3c2440nand>:
 65c:	4e000000 	cdpmi	0, 0, cr0, cr0, cr0, {0}

00000660 <s3c2410nand>:
 660:	4e000000 	cdpmi	0, 0, cr0, cr0, cr0, {0}

00000664 <nand_chip>:
	...
 680:	43434700 	cmpmi	r3, #0	; 0x0
 684:	4728203a 	undefined
 688:	2029554e 	eorcs	r5, r9, lr, asr #10
 68c:	2e342e33 	mrccs	14, 1, r2, cr4, cr3, {1}
 690:	00000031 	andeq	r0, r0, r1, lsr r0
Disassembly of section .text:

30000000 <Dummy_isr>:
30000000:	eafffffe 	b	30000000 <Dummy_isr>

30000004 <IRQ_Handle>:
30000004:	e3a0344a 	mov	r3, #1241513984	; 0x4a000000
30000008:	e5930014 	ldr	r0, [r3, #20]
3000000c:	e3500002 	cmp	r0, #2	; 0x2
30000010:	0a000015 	beq	3000006c <IRQ_Handle+0x68>
30000014:	9a000007 	bls	30000038 <IRQ_Handle+0x34>
30000018:	e3500005 	cmp	r0, #5	; 0x5
3000001c:	0a000027 	beq	300000c0 <IRQ_Handle+0xbc>
30000020:	e3a03001 	mov	r3, #1	; 0x1
30000024:	e1a03013 	mov	r3, r3, lsl r0
30000028:	e3a0244a 	mov	r2, #1241513984	; 0x4a000000
3000002c:	e5823000 	str	r3, [r2]
30000030:	e5823010 	str	r3, [r2, #16]
30000034:	e1a0f00e 	mov	pc, lr
30000038:	e3500000 	cmp	r0, #0	; 0x0
3000003c:	0a000017 	beq	300000a0 <IRQ_Handle+0x9c>
30000040:	e3500005 	cmp	r0, #5	; 0x5
30000044:	1afffff5 	bne	30000020 <IRQ_Handle+0x1c>
30000048:	e3a02b02 	mov	r2, #2048	; 0x800
3000004c:	e3a03456 	mov	r3, #1442840576	; 0x56000000
30000050:	e58320a8 	str	r2, [r3, #168]
30000054:	e3a03001 	mov	r3, #1	; 0x1
30000058:	e1a03013 	mov	r3, r3, lsl r0
3000005c:	e3a0244a 	mov	r2, #1241513984	; 0x4a000000
30000060:	e5823000 	str	r3, [r2]
30000064:	e5823010 	str	r3, [r2, #16]
30000068:	e1a0f00e 	mov	pc, lr
3000006c:	e3a03456 	mov	r3, #1442840576	; 0x56000000
30000070:	e5932054 	ldr	r2, [r3, #84]
30000074:	e3822070 	orr	r2, r2, #112	; 0x70
30000078:	e5832054 	str	r2, [r3, #84]
3000007c:	e5931054 	ldr	r1, [r3, #84]
30000080:	e3c11020 	bic	r1, r1, #32	; 0x20
30000084:	e5831054 	str	r1, [r3, #84]
30000088:	e3a03001 	mov	r3, #1	; 0x1
3000008c:	e1a03013 	mov	r3, r3, lsl r0
30000090:	e3a0244a 	mov	r2, #1241513984	; 0x4a000000
30000094:	e5823000 	str	r3, [r2]
30000098:	e5823010 	str	r3, [r2, #16]
3000009c:	e1a0f00e 	mov	pc, lr
300000a0:	e3a03456 	mov	r3, #1442840576	; 0x56000000
300000a4:	e5932054 	ldr	r2, [r3, #84]
300000a8:	e3822070 	orr	r2, r2, #112	; 0x70
300000ac:	e5832054 	str	r2, [r3, #84]
300000b0:	e5931054 	ldr	r1, [r3, #84]
300000b4:	e3c11010 	bic	r1, r1, #16	; 0x10
300000b8:	e5831054 	str	r1, [r3, #84]
300000bc:	eafffff1 	b	30000088 <IRQ_Handle+0x84>
300000c0:	e3a03456 	mov	r3, #1442840576	; 0x56000000
300000c4:	e5932054 	ldr	r2, [r3, #84]
300000c8:	e3822070 	orr	r2, r2, #112	; 0x70
300000cc:	e5832054 	str	r2, [r3, #84]
300000d0:	e5931054 	ldr	r1, [r3, #84]
300000d4:	e3c11040 	bic	r1, r1, #64	; 0x40
300000d8:	e5831054 	str	r1, [r3, #84]
300000dc:	eaffffd9 	b	30000048 <IRQ_Handle+0x44>

300000e0 <init_led>:
300000e0:	e3a03456 	mov	r3, #1442840576	; 0x56000000
300000e4:	e5932050 	ldr	r2, [r3, #80]
300000e8:	e3c22c3f 	bic	r2, r2, #16128	; 0x3f00
300000ec:	e5832050 	str	r2, [r3, #80]
300000f0:	e5931050 	ldr	r1, [r3, #80]
300000f4:	e3811c15 	orr	r1, r1, #5376	; 0x1500
300000f8:	e5831050 	str	r1, [r3, #80]
300000fc:	e1a0f00e 	mov	pc, lr

30000100 <init_irq>:
30000100:	e3a01456 	mov	r1, #1442840576	; 0x56000000
30000104:	e5913050 	ldr	r3, [r1, #80]
30000108:	e3c33033 	bic	r3, r3, #51	; 0x33
3000010c:	e5813050 	str	r3, [r1, #80]
30000110:	e3a0044a 	mov	r0, #1241513984	; 0x4a000000
30000114:	e5913050 	ldr	r3, [r1, #80]
30000118:	e3833022 	orr	r3, r3, #34	; 0x22
3000011c:	e5813050 	str	r3, [r1, #80]
30000120:	e5912060 	ldr	r2, [r1, #96]
30000124:	e3c220c0 	bic	r2, r2, #192	; 0xc0
30000128:	e5812060 	str	r2, [r1, #96]
3000012c:	e5913060 	ldr	r3, [r1, #96]
30000130:	e3833080 	orr	r3, r3, #128	; 0x80
30000134:	e5813060 	str	r3, [r1, #96]
30000138:	e59120a4 	ldr	r2, [r1, #164]
3000013c:	e3c22b02 	bic	r2, r2, #2048	; 0x800
30000140:	e58120a4 	str	r2, [r1, #164]
30000144:	e590300c 	ldr	r3, [r0, #12]
30000148:	e3c33001 	bic	r3, r3, #1	; 0x1
3000014c:	e580300c 	str	r3, [r0, #12]
30000150:	e5902008 	ldr	r2, [r0, #8]
30000154:	e3c22025 	bic	r2, r2, #37	; 0x25
30000158:	e5802008 	str	r2, [r0, #8]
3000015c:	e1a0f00e 	mov	pc, lr

30000160 <uart0_init>:
30000160:	e3a01456 	mov	r1, #1442840576	; 0x56000000
30000164:	e5913070 	ldr	r3, [r1, #112]
30000168:	e38330a0 	orr	r3, r3, #160	; 0xa0
3000016c:	e5813070 	str	r3, [r1, #112]
30000170:	e3a00205 	mov	r0, #1342177280	; 0x50000000
30000174:	e3a0200c 	mov	r2, #12	; 0xc
30000178:	e3a03003 	mov	r3, #3	; 0x3
3000017c:	e3a0c000 	mov	ip, #0	; 0x0
30000180:	e5812078 	str	r2, [r1, #120]
30000184:	e3a01005 	mov	r1, #5	; 0x5
30000188:	e242224b 	sub	r2, r2, #-1342177276	; 0xb0000004
3000018c:	e5803000 	str	r3, [r0]
30000190:	e2833215 	add	r3, r3, #1342177281	; 0x50000001
30000194:	e4831008 	str	r1, [r3], #8
30000198:	e582c000 	str	ip, [r2]
3000019c:	e583c000 	str	ip, [r3]
300001a0:	e28332eb 	add	r3, r3, #-1342177266	; 0xb000000e
300001a4:	e28cc063 	add	ip, ip, #99	; 0x63
300001a8:	e5803028 	str	r3, [r0, #40]
300001ac:	e25cc001 	subs	ip, ip, #1	; 0x1
300001b0:	5afffffd 	bpl	300001ac <uart0_init+0x4c>
300001b4:	e1a0f00e 	mov	pc, lr

300001b8 <putc>:
300001b8:	e20000ff 	and	r0, r0, #255	; 0xff
300001bc:	e3a02205 	mov	r2, #1342177280	; 0x50000000
300001c0:	e5923010 	ldr	r3, [r2, #16]
300001c4:	e3130004 	tst	r3, #4	; 0x4
300001c8:	0afffffc 	beq	300001c0 <putc+0x8>
300001cc:	e5c20020 	strb	r0, [r2, #32]
300001d0:	e1a0f00e 	mov	pc, lr

300001d4 <getc>:
300001d4:	e3a02205 	mov	r2, #1342177280	; 0x50000000
300001d8:	e5923010 	ldr	r3, [r2, #16]
300001dc:	e3130001 	tst	r3, #1	; 0x1
300001e0:	0afffffc 	beq	300001d8 <getc+0x4>
300001e4:	e5d20024 	ldrb	r0, [r2, #36]
300001e8:	e1a0f00e 	mov	pc, lr

300001ec <isDigit>:
300001ec:	e2400030 	sub	r0, r0, #48	; 0x30
300001f0:	e20000ff 	and	r0, r0, #255	; 0xff
300001f4:	e3500009 	cmp	r0, #9	; 0x9
300001f8:	83a00000 	movhi	r0, #0	; 0x0
300001fc:	93a00001 	movls	r0, #1	; 0x1
30000200:	e1a0f00e 	mov	pc, lr

30000204 <isLetter>:
30000204:	e20000ff 	and	r0, r0, #255	; 0xff
30000208:	e2403061 	sub	r3, r0, #97	; 0x61
3000020c:	e3530019 	cmp	r3, #25	; 0x19
30000210:	e2400041 	sub	r0, r0, #65	; 0x41
30000214:	e3a03001 	mov	r3, #1	; 0x1
30000218:	9a000002 	bls	30000228 <isLetter+0x24>
3000021c:	e3500019 	cmp	r0, #25	; 0x19
30000220:	83a03000 	movhi	r3, #0	; 0x0
30000224:	93a03001 	movls	r3, #1	; 0x1
30000228:	e1a00003 	mov	r0, r3
3000022c:	e1a0f00e 	mov	pc, lr

30000230 <Lcd_Port_Init>:
30000230:	e3a02caa 	mov	r2, #43520	; 0xaa00
30000234:	e28220aa 	add	r2, r2, #170	; 0xaa
30000238:	e3a01456 	mov	r1, #1442840576	; 0x56000000
3000023c:	e1822802 	orr	r2, r2, r2, lsl #16
30000240:	e3e03000 	mvn	r3, #0	; 0x0
30000244:	e5813028 	str	r3, [r1, #40]
30000248:	e59f0030 	ldr	r0, [pc, #48]	; 30000280 <.text+0x280>
3000024c:	e5812020 	str	r2, [r1, #32]
30000250:	e5813038 	str	r3, [r1, #56]
30000254:	e5812030 	str	r2, [r1, #48]
30000258:	e5913010 	ldr	r3, [r1, #16]
3000025c:	e3c33003 	bic	r3, r3, #3	; 0x3
30000260:	e5813010 	str	r3, [r1, #16]
30000264:	e5912010 	ldr	r2, [r1, #16]
30000268:	e3822001 	orr	r2, r2, #1	; 0x1
3000026c:	e5812010 	str	r2, [r1, #16]
30000270:	e5913014 	ldr	r3, [r1, #20]
30000274:	e3c33001 	bic	r3, r3, #1	; 0x1
30000278:	e5813014 	str	r3, [r1, #20]
3000027c:	ea00070b 	b	30001eb0 <puts>
30000280:	3000341c 	andcc	r3, r0, ip, lsl r4

30000284 <Tft_Lcd_Init>:
30000284:	e92d41f0 	stmdb	sp!, {r4, r5, r6, r7, r8, lr}
30000288:	e59f3094 	ldr	r3, [pc, #148]	; 30000324 <.text+0x324>
3000028c:	e3a025c1 	mov	r2, #809500672	; 0x30400000
30000290:	e3a00010 	mov	r0, #16	; 0x10
30000294:	e3a0c505 	mov	ip, #20971520	; 0x1400000
30000298:	e3a0ea9d 	mov	lr, #643072	; 0x9d000
3000029c:	e28cc90f 	add	ip, ip, #245760	; 0x3c000
300002a0:	e28eec0f 	add	lr, lr, #3840	; 0xf00
300002a4:	e3a04e47 	mov	r4, #1136	; 0x470
300002a8:	e3a0144d 	mov	r1, #1291845632	; 0x4d000000
300002ac:	e5832000 	str	r2, [r3]
300002b0:	e59f3070 	ldr	r3, [pc, #112]	; 30000328 <.text+0x328>
300002b4:	e3a05c0b 	mov	r5, #2816	; 0xb00
300002b8:	e3a06306 	mov	r6, #402653184	; 0x18000000
300002bc:	e5830000 	str	r0, [r3]
300002c0:	e59f3064 	ldr	r3, [pc, #100]	; 3000032c <.text+0x32c>
300002c4:	e2800c01 	add	r0, r0, #256	; 0x100
300002c8:	e3a07b7f 	mov	r7, #130048	; 0x1fc00
300002cc:	e2844008 	add	r4, r4, #8	; 0x8
300002d0:	e28cc049 	add	ip, ip, #73	; 0x49
300002d4:	e28ee001 	add	lr, lr, #1	; 0x1
300002d8:	e59f2050 	ldr	r2, [pc, #80]	; 30000330 <.text+0x330>
300002dc:	e5830000 	str	r0, [r3]
300002e0:	e3a03028 	mov	r3, #40	; 0x28
300002e4:	e3a08e1e 	mov	r8, #480	; 0x1e0
300002e8:	e2855002 	add	r5, r5, #2	; 0x2
300002ec:	e2866602 	add	r6, r6, #2097152	; 0x200000
300002f0:	e5814000 	str	r4, [r1]
300002f4:	e2877c02 	add	r7, r7, #512	; 0x200
300002f8:	e581c004 	str	ip, [r1, #4]
300002fc:	e581e008 	str	lr, [r1, #8]
30000300:	e581300c 	str	r3, [r1, #12]
30000304:	e2433028 	sub	r3, r3, #40	; 0x28
30000308:	e5815010 	str	r5, [r1, #16]
3000030c:	e5828000 	str	r8, [r2]
30000310:	e5816014 	str	r6, [r1, #20]
30000314:	e5817018 	str	r7, [r1, #24]
30000318:	e581801c 	str	r8, [r1, #28]
3000031c:	e5813050 	str	r3, [r1, #80]
30000320:	e8bd81f0 	ldmia	sp!, {r4, r5, r6, r7, r8, pc}
30000324:	30004870 	andcc	r4, r0, r0, ror r8
30000328:	30004878 	andcc	r4, r0, r8, ror r8
3000032c:	30004874 	andcc	r4, r0, r4, ror r8
30000330:	3000486c 	andcc	r4, r0, ip, ror #16

30000334 <Lcd_Palette8Bit_Init>:
30000334:	e92d4010 	stmdb	sp!, {r4, lr}
30000338:	e3a0344d 	mov	r3, #1291845632	; 0x4d000000
3000033c:	e59f4054 	ldr	r4, [pc, #84]	; 30000398 <.text+0x398>
30000340:	e283eb01 	add	lr, r3, #1024	; 0x400
30000344:	e3a0c000 	mov	ip, #0	; 0x0
30000348:	e5932000 	ldr	r2, [r3]
3000034c:	e3c22001 	bic	r2, r2, #1	; 0x1
30000350:	e5832000 	str	r2, [r3]
30000354:	e5932010 	ldr	r2, [r3, #16]
30000358:	e3822b02 	orr	r2, r2, #2048	; 0x800
3000035c:	e5832010 	str	r2, [r3, #16]
30000360:	e1a0208c 	mov	r2, ip, lsl #1
30000364:	e0821004 	add	r1, r2, r4
30000368:	e7d23004 	ldrb	r3, [r2, r4]
3000036c:	e5d10001 	ldrb	r0, [r1, #1]
30000370:	e28cc001 	add	ip, ip, #1	; 0x1
30000374:	e1833400 	orr	r3, r3, r0, lsl #8
30000378:	e35c00ff 	cmp	ip, #255	; 0xff
3000037c:	e48e3004 	str	r3, [lr], #4
30000380:	dafffff6 	ble	30000360 <Lcd_Palette8Bit_Init+0x2c>
30000384:	e3a0244d 	mov	r2, #1291845632	; 0x4d000000
30000388:	e5923000 	ldr	r3, [r2]
3000038c:	e3833001 	orr	r3, r3, #1	; 0x1
30000390:	e5823000 	str	r3, [r2]
30000394:	e8bd8010 	ldmia	sp!, {r4, pc}
30000398:	3000321c 	andcc	r3, r0, ip, lsl r2

3000039c <ChangePalette>:
3000039c:	e3a0244d 	mov	r2, #1291845632	; 0x4d000000
300003a0:	e5923000 	ldr	r3, [r2]
300003a4:	e3c33001 	bic	r3, r3, #1	; 0x1
300003a8:	e5823000 	str	r3, [r2]
300003ac:	e1a02420 	mov	r2, r0, lsr #8
300003b0:	e1a032a0 	mov	r3, r0, lsr #5
300003b4:	e2033e7e 	and	r3, r3, #2016	; 0x7e0
300003b8:	e2022b3e 	and	r2, r2, #63488	; 0xf800
300003bc:	e1822003 	orr	r2, r2, r3
300003c0:	e1a01c00 	mov	r1, r0, lsl #24
300003c4:	e3a0c44d 	mov	ip, #1291845632	; 0x4d000000
300003c8:	e1820da1 	orr	r0, r2, r1, lsr #27
300003cc:	e28ccb01 	add	ip, ip, #1024	; 0x400
300003d0:	e3a030ff 	mov	r3, #255	; 0xff
300003d4:	e2533001 	subs	r3, r3, #1	; 0x1
300003d8:	e48c0004 	str	r0, [ip], #4
300003dc:	5afffffc 	bpl	300003d4 <ChangePalette+0x38>
300003e0:	e3a0244d 	mov	r2, #1291845632	; 0x4d000000
300003e4:	e5923000 	ldr	r3, [r2]
300003e8:	e3833001 	orr	r3, r3, #1	; 0x1
300003ec:	e5823000 	str	r3, [r2]
300003f0:	e1a0f00e 	mov	pc, lr

300003f4 <Lcd_PowerEnable>:
300003f4:	e52de004 	str	lr, [sp, #-4]!
300003f8:	e3a0c456 	mov	ip, #1442840576	; 0x56000000
300003fc:	e3a0e44d 	mov	lr, #1291845632	; 0x4d000000
30000400:	e59c3060 	ldr	r3, [ip, #96]
30000404:	e3833c03 	orr	r3, r3, #768	; 0x300
30000408:	e58c3060 	str	r3, [ip, #96]
3000040c:	e59c3068 	ldr	r3, [ip, #104]
30000410:	e3833010 	orr	r3, r3, #16	; 0x10
30000414:	e58c3068 	str	r3, [ip, #104]
30000418:	e59e2010 	ldr	r2, [lr, #16]
3000041c:	e3c22020 	bic	r2, r2, #32	; 0x20
30000420:	e1822280 	orr	r2, r2, r0, lsl #5
30000424:	e58e2010 	str	r2, [lr, #16]
30000428:	e59e3010 	ldr	r3, [lr, #16]
3000042c:	e3c33008 	bic	r3, r3, #8	; 0x8
30000430:	e1833181 	orr	r3, r3, r1, lsl #3
30000434:	e58e3010 	str	r3, [lr, #16]
30000438:	e49df004 	ldr	pc, [sp], #4

3000043c <Lcd_EnvidOnOff>:
3000043c:	e3a01456 	mov	r1, #1442840576	; 0x56000000
30000440:	e3500001 	cmp	r0, #1	; 0x1
30000444:	e52de004 	str	lr, [sp, #-4]!
30000448:	e3a0244d 	mov	r2, #1291845632	; 0x4d000000
3000044c:	e1a0e001 	mov	lr, r1
30000450:	0a000007 	beq	30000474 <Lcd_EnvidOnOff+0x38>
30000454:	e5923000 	ldr	r3, [r2]
30000458:	e3c3337f 	bic	r3, r3, #-67108863	; 0xfc000001
3000045c:	e3c337ff 	bic	r3, r3, #66846720	; 0x3fc0000
30000460:	e5823000 	str	r3, [r2]
30000464:	e5912014 	ldr	r2, [r1, #20]
30000468:	e3c22001 	bic	r2, r2, #1	; 0x1
3000046c:	e5812014 	str	r2, [r1, #20]
30000470:	e49df004 	ldr	pc, [sp], #4
30000474:	e5923000 	ldr	r3, [r2]
30000478:	e3833001 	orr	r3, r3, #1	; 0x1
3000047c:	e5823000 	str	r3, [r2]
30000480:	e5912014 	ldr	r2, [r1, #20]
30000484:	e3822001 	orr	r2, r2, #1	; 0x1
30000488:	e5812014 	str	r2, [r1, #20]
3000048c:	e49df004 	ldr	pc, [sp], #4

30000490 <ClearScrWithTmpPlt>:
30000490:	e3c004ff 	bic	r0, r0, #-16777216	; 0xff000000
30000494:	e3800401 	orr	r0, r0, #16777216	; 0x1000000
30000498:	e3a0344d 	mov	r3, #1291845632	; 0x4d000000
3000049c:	e5830050 	str	r0, [r3, #80]
300004a0:	e1a0f00e 	mov	pc, lr

300004a4 <DisableTmpPlt>:
300004a4:	e3a02000 	mov	r2, #0	; 0x0
300004a8:	e3a0344d 	mov	r3, #1291845632	; 0x4d000000
300004ac:	e5832050 	str	r2, [r3, #80]
300004b0:	e1a0f00e 	mov	pc, lr

300004b4 <PutPixel>:
300004b4:	e92d4030 	stmdb	sp!, {r4, r5, lr}
300004b8:	e59f3080 	ldr	r3, [pc, #128]	; 30000540 <.text+0x540>
300004bc:	e1a0c002 	mov	ip, r2
300004c0:	e1a05000 	mov	r5, r0
300004c4:	e1a04001 	mov	r4, r1
300004c8:	e593e000 	ldr	lr, [r3]
300004cc:	e35e0008 	cmp	lr, #8	; 0x8
300004d0:	0a000013 	beq	30000524 <PutPixel+0x70>
300004d4:	e1a03422 	mov	r3, r2, lsr #8
300004d8:	e1a022a2 	mov	r2, r2, lsr #5
300004dc:	e2033b3e 	and	r3, r3, #63488	; 0xf800
300004e0:	e2022e7e 	and	r2, r2, #2016	; 0x7e0
300004e4:	e1833002 	orr	r3, r3, r2
300004e8:	e1a01c0c 	mov	r1, ip, lsl #24
300004ec:	e183cda1 	orr	ip, r3, r1, lsr #27
300004f0:	e35e0010 	cmp	lr, #16	; 0x10
300004f4:	e1a0044c 	mov	r0, ip, asr #8
300004f8:	18bd8030 	ldmneia	sp!, {r4, r5, pc}
300004fc:	e59f3040 	ldr	r3, [pc, #64]	; 30000544 <.text+0x544>
30000500:	e5932000 	ldr	r2, [r3]
30000504:	e0215492 	mla	r1, r2, r4, r5
30000508:	e59f3038 	ldr	r3, [pc, #56]	; 30000548 <.text+0x548>
3000050c:	e5932000 	ldr	r2, [r3]
30000510:	e1a01081 	mov	r1, r1, lsl #1
30000514:	e0813002 	add	r3, r1, r2
30000518:	e7c1c002 	strb	ip, [r1, r2]
3000051c:	e5c30001 	strb	r0, [r3, #1]
30000520:	e8bd8030 	ldmia	sp!, {r4, r5, pc}
30000524:	e59f3018 	ldr	r3, [pc, #24]	; 30000544 <.text+0x544>
30000528:	e5932000 	ldr	r2, [r3]
3000052c:	e0210492 	mla	r1, r2, r4, r0
30000530:	e59f3010 	ldr	r3, [pc, #16]	; 30000548 <.text+0x548>
30000534:	e5932000 	ldr	r2, [r3]
30000538:	e7c1c002 	strb	ip, [r1, r2]
3000053c:	e8bd8030 	ldmia	sp!, {r4, r5, pc}
30000540:	30004878 	andcc	r4, r0, r8, ror r8
30000544:	3000486c 	andcc	r4, r0, ip, ror #16
30000548:	30004870 	andcc	r4, r0, r0, ror r8

3000054c <DrawLine>:
3000054c:	e92d4ff0 	stmdb	sp!, {r4, r5, r6, r7, r8, r9, sl, fp, lr}
30000550:	e0528000 	subs	r8, r2, r0
30000554:	e1a05000 	mov	r5, r0
30000558:	e1a0a002 	mov	sl, r2
3000055c:	e1a06001 	mov	r6, r1
30000560:	e1a09003 	mov	r9, r3
30000564:	e59db024 	ldr	fp, [sp, #36]
30000568:	e0617003 	rsb	r7, r1, r3
3000056c:	4a000023 	bmi	30000600 <DrawLine+0xb4>
30000570:	e3570000 	cmp	r7, #0	; 0x0
30000574:	ba000036 	blt	30000654 <DrawLine+0x108>
30000578:	e1580007 	cmp	r8, r7
3000057c:	ba00000f 	blt	300005c0 <DrawLine+0x74>
30000580:	e0883fa8 	add	r3, r8, r8, lsr #31
30000584:	e1500002 	cmp	r0, r2
30000588:	e04740c3 	sub	r4, r7, r3, asr #1
3000058c:	c8bd8ff0 	ldmgtia	sp!, {r4, r5, r6, r7, r8, r9, sl, fp, pc}
30000590:	e1a00005 	mov	r0, r5
30000594:	e1a01006 	mov	r1, r6
30000598:	e1a0200b 	mov	r2, fp
3000059c:	e2855001 	add	r5, r5, #1	; 0x1
300005a0:	ebffffc3 	bl	300004b4 <PutPixel>
300005a4:	e3540000 	cmp	r4, #0	; 0x0
300005a8:	c0684004 	rsbgt	r4, r8, r4
300005ac:	c2866001 	addgt	r6, r6, #1	; 0x1
300005b0:	e155000a 	cmp	r5, sl
300005b4:	e0844007 	add	r4, r4, r7
300005b8:	dafffff4 	ble	30000590 <DrawLine+0x44>
300005bc:	e8bd8ff0 	ldmia	sp!, {r4, r5, r6, r7, r8, r9, sl, fp, pc}
300005c0:	e1510003 	cmp	r1, r3
300005c4:	e0873fa7 	add	r3, r7, r7, lsr #31
300005c8:	e04840c3 	sub	r4, r8, r3, asr #1
300005cc:	c8bd8ff0 	ldmgtia	sp!, {r4, r5, r6, r7, r8, r9, sl, fp, pc}
300005d0:	e1a00005 	mov	r0, r5
300005d4:	e1a01006 	mov	r1, r6
300005d8:	e1a0200b 	mov	r2, fp
300005dc:	e2866001 	add	r6, r6, #1	; 0x1
300005e0:	ebffffb3 	bl	300004b4 <PutPixel>
300005e4:	e3540000 	cmp	r4, #0	; 0x0
300005e8:	c0674004 	rsbgt	r4, r7, r4
300005ec:	c2855001 	addgt	r5, r5, #1	; 0x1
300005f0:	e1560009 	cmp	r6, r9
300005f4:	e0844008 	add	r4, r4, r8
300005f8:	dafffff4 	ble	300005d0 <DrawLine+0x84>
300005fc:	e8bd8ff0 	ldmia	sp!, {r4, r5, r6, r7, r8, r9, sl, fp, pc}
30000600:	e3570000 	cmp	r7, #0	; 0x0
30000604:	e2688000 	rsb	r8, r8, #0	; 0x0
30000608:	ba000044 	blt	30000720 <DrawLine+0x1d4>
3000060c:	e1580007 	cmp	r8, r7
30000610:	ba000022 	blt	300006a0 <DrawLine+0x154>
30000614:	e0883fa8 	add	r3, r8, r8, lsr #31
30000618:	e1500002 	cmp	r0, r2
3000061c:	e04740c3 	sub	r4, r7, r3, asr #1
30000620:	b8bd8ff0 	ldmltia	sp!, {r4, r5, r6, r7, r8, r9, sl, fp, pc}
30000624:	e1a00005 	mov	r0, r5
30000628:	e1a01006 	mov	r1, r6
3000062c:	e1a0200b 	mov	r2, fp
30000630:	e2455001 	sub	r5, r5, #1	; 0x1
30000634:	ebffff9e 	bl	300004b4 <PutPixel>
30000638:	e3540000 	cmp	r4, #0	; 0x0
3000063c:	c0684004 	rsbgt	r4, r8, r4
30000640:	c2866001 	addgt	r6, r6, #1	; 0x1
30000644:	e155000a 	cmp	r5, sl
30000648:	e0844007 	add	r4, r4, r7
3000064c:	aafffff4 	bge	30000624 <DrawLine+0xd8>
30000650:	e8bd8ff0 	ldmia	sp!, {r4, r5, r6, r7, r8, r9, sl, fp, pc}
30000654:	e2677000 	rsb	r7, r7, #0	; 0x0
30000658:	e1580007 	cmp	r8, r7
3000065c:	ba00001f 	blt	300006e0 <DrawLine+0x194>
30000660:	e0883fa8 	add	r3, r8, r8, lsr #31
30000664:	e1500002 	cmp	r0, r2
30000668:	e04740c3 	sub	r4, r7, r3, asr #1
3000066c:	c8bd8ff0 	ldmgtia	sp!, {r4, r5, r6, r7, r8, r9, sl, fp, pc}
30000670:	e1a00005 	mov	r0, r5
30000674:	e1a01006 	mov	r1, r6
30000678:	e1a0200b 	mov	r2, fp
3000067c:	e2855001 	add	r5, r5, #1	; 0x1
30000680:	ebffff8b 	bl	300004b4 <PutPixel>
30000684:	e3540000 	cmp	r4, #0	; 0x0
30000688:	c0684004 	rsbgt	r4, r8, r4
3000068c:	c2466001 	subgt	r6, r6, #1	; 0x1
30000690:	e155000a 	cmp	r5, sl
30000694:	e0844007 	add	r4, r4, r7
30000698:	dafffff4 	ble	30000670 <DrawLine+0x124>
3000069c:	e8bd8ff0 	ldmia	sp!, {r4, r5, r6, r7, r8, r9, sl, fp, pc}
300006a0:	e1510003 	cmp	r1, r3
300006a4:	e0873fa7 	add	r3, r7, r7, lsr #31
300006a8:	e04840c3 	sub	r4, r8, r3, asr #1
300006ac:	c8bd8ff0 	ldmgtia	sp!, {r4, r5, r6, r7, r8, r9, sl, fp, pc}
300006b0:	e1a00005 	mov	r0, r5
300006b4:	e1a01006 	mov	r1, r6
300006b8:	e1a0200b 	mov	r2, fp
300006bc:	e2866001 	add	r6, r6, #1	; 0x1
300006c0:	ebffff7b 	bl	300004b4 <PutPixel>
300006c4:	e3540000 	cmp	r4, #0	; 0x0
300006c8:	c0674004 	rsbgt	r4, r7, r4
300006cc:	c2455001 	subgt	r5, r5, #1	; 0x1
300006d0:	e1560009 	cmp	r6, r9
300006d4:	e0844008 	add	r4, r4, r8
300006d8:	dafffff4 	ble	300006b0 <DrawLine+0x164>
300006dc:	e8bd8ff0 	ldmia	sp!, {r4, r5, r6, r7, r8, r9, sl, fp, pc}
300006e0:	e1510003 	cmp	r1, r3
300006e4:	e0873fa7 	add	r3, r7, r7, lsr #31
300006e8:	e04840c3 	sub	r4, r8, r3, asr #1
300006ec:	b8bd8ff0 	ldmltia	sp!, {r4, r5, r6, r7, r8, r9, sl, fp, pc}
300006f0:	e1a00005 	mov	r0, r5
300006f4:	e1a01006 	mov	r1, r6
300006f8:	e1a0200b 	mov	r2, fp
300006fc:	e2466001 	sub	r6, r6, #1	; 0x1
30000700:	ebffff6b 	bl	300004b4 <PutPixel>
30000704:	e3540000 	cmp	r4, #0	; 0x0
30000708:	c0674004 	rsbgt	r4, r7, r4
3000070c:	c2855001 	addgt	r5, r5, #1	; 0x1
30000710:	e1560009 	cmp	r6, r9
30000714:	e0844008 	add	r4, r4, r8
30000718:	aafffff4 	bge	300006f0 <DrawLine+0x1a4>
3000071c:	e8bd8ff0 	ldmia	sp!, {r4, r5, r6, r7, r8, r9, sl, fp, pc}
30000720:	e2677000 	rsb	r7, r7, #0	; 0x0
30000724:	e1580007 	cmp	r8, r7
30000728:	ba00000f 	blt	3000076c <DrawLine+0x220>
3000072c:	e0883fa8 	add	r3, r8, r8, lsr #31
30000730:	e1500002 	cmp	r0, r2
30000734:	e04740c3 	sub	r4, r7, r3, asr #1
30000738:	b8bd8ff0 	ldmltia	sp!, {r4, r5, r6, r7, r8, r9, sl, fp, pc}
3000073c:	e1a00005 	mov	r0, r5
30000740:	e1a01006 	mov	r1, r6
30000744:	e1a0200b 	mov	r2, fp
30000748:	e2455001 	sub	r5, r5, #1	; 0x1
3000074c:	ebffff58 	bl	300004b4 <PutPixel>
30000750:	e3540000 	cmp	r4, #0	; 0x0
30000754:	c0684004 	rsbgt	r4, r8, r4
30000758:	c2466001 	subgt	r6, r6, #1	; 0x1
3000075c:	e155000a 	cmp	r5, sl
30000760:	e0844007 	add	r4, r4, r7
30000764:	aafffff4 	bge	3000073c <DrawLine+0x1f0>
30000768:	e8bd8ff0 	ldmia	sp!, {r4, r5, r6, r7, r8, r9, sl, fp, pc}
3000076c:	e1510003 	cmp	r1, r3
30000770:	e0873fa7 	add	r3, r7, r7, lsr #31
30000774:	e04840c3 	sub	r4, r8, r3, asr #1
30000778:	b8bd8ff0 	ldmltia	sp!, {r4, r5, r6, r7, r8, r9, sl, fp, pc}
3000077c:	e1a00005 	mov	r0, r5
30000780:	e1a01006 	mov	r1, r6
30000784:	e1a0200b 	mov	r2, fp
30000788:	e2466001 	sub	r6, r6, #1	; 0x1
3000078c:	ebffff48 	bl	300004b4 <PutPixel>
30000790:	e3540000 	cmp	r4, #0	; 0x0
30000794:	c0674004 	rsbgt	r4, r7, r4
30000798:	c2455001 	subgt	r5, r5, #1	; 0x1
3000079c:	e1560009 	cmp	r6, r9
300007a0:	e0844008 	add	r4, r4, r8
300007a4:	aafffff4 	bge	3000077c <DrawLine+0x230>
300007a8:	e8bd8ff0 	ldmia	sp!, {r4, r5, r6, r7, r8, r9, sl, fp, pc}

300007ac <Mire>:
300007ac:	e92d40f0 	stmdb	sp!, {r4, r5, r6, r7, lr}
300007b0:	e59f708c 	ldr	r7, [pc, #140]	; 30000844 <.text+0x844>
300007b4:	e5973000 	ldr	r3, [r7]
300007b8:	e3a05000 	mov	r5, #0	; 0x0
300007bc:	e1550003 	cmp	r5, r3
300007c0:	28bd80f0 	ldmcsia	sp!, {r4, r5, r6, r7, pc}
300007c4:	e59f607c 	ldr	r6, [pc, #124]	; 30000848 <.text+0x848>
300007c8:	e5963000 	ldr	r3, [r6]
300007cc:	e3a04000 	mov	r4, #0	; 0x0
300007d0:	e1540003 	cmp	r4, r3
300007d4:	2a000015 	bcs	30000830 <Mire+0x84>
300007d8:	e5973000 	ldr	r3, [r7]
300007dc:	e04530a3 	sub	r3, r5, r3, lsr #1
300007e0:	e0010393 	mul	r1, r3, r3
300007e4:	e5962000 	ldr	r2, [r6]
300007e8:	e04420a2 	sub	r2, r4, r2, lsr #1
300007ec:	e0201292 	mla	r0, r2, r2, r1
300007f0:	e1a02320 	mov	r2, r0, lsr #6
300007f4:	e1a03380 	mov	r3, r0, lsl #7
300007f8:	e20338ff 	and	r3, r3, #16711680	; 0xff0000
300007fc:	e1822c82 	orr	r2, r2, r2, lsl #25
30000800:	e1822003 	orr	r2, r2, r3
30000804:	e2001cff 	and	r1, r0, #65280	; 0xff00
30000808:	e1822001 	orr	r2, r2, r1
3000080c:	e1a00880 	mov	r0, r0, lsl #17
30000810:	e1822c20 	orr	r2, r2, r0, lsr #24
30000814:	e1a01005 	mov	r1, r5
30000818:	e1a00004 	mov	r0, r4
3000081c:	ebffff24 	bl	300004b4 <PutPixel>
30000820:	e2844001 	add	r4, r4, #1	; 0x1
30000824:	e5963000 	ldr	r3, [r6]
30000828:	e1540003 	cmp	r4, r3
3000082c:	3affffe9 	bcc	300007d8 <Mire+0x2c>
30000830:	e5973000 	ldr	r3, [r7]
30000834:	e2855001 	add	r5, r5, #1	; 0x1
30000838:	e1550003 	cmp	r5, r3
3000083c:	3affffe1 	bcc	300007c8 <Mire+0x1c>
30000840:	e8bd80f0 	ldmia	sp!, {r4, r5, r6, r7, pc}
30000844:	30004874 	andcc	r4, r0, r4, ror r8
30000848:	3000486c 	andcc	r4, r0, ip, ror #16

3000084c <ClearScr>:
3000084c:	e92d41f0 	stmdb	sp!, {r4, r5, r6, r7, r8, lr}
30000850:	e59f8058 	ldr	r8, [pc, #88]	; 300008b0 <.text+0x8b0>
30000854:	e5983000 	ldr	r3, [r8]
30000858:	e3a05000 	mov	r5, #0	; 0x0
3000085c:	e1550003 	cmp	r5, r3
30000860:	e1a06000 	mov	r6, r0
30000864:	28bd81f0 	ldmcsia	sp!, {r4, r5, r6, r7, r8, pc}
30000868:	e59f7044 	ldr	r7, [pc, #68]	; 300008b4 <.text+0x8b4>
3000086c:	e5973000 	ldr	r3, [r7]
30000870:	e3a04000 	mov	r4, #0	; 0x0
30000874:	e1540003 	cmp	r4, r3
30000878:	2a000007 	bcs	3000089c <ClearScr+0x50>
3000087c:	e1a00004 	mov	r0, r4
30000880:	e1a01005 	mov	r1, r5
30000884:	e1a02006 	mov	r2, r6
30000888:	ebffff09 	bl	300004b4 <PutPixel>
3000088c:	e2844001 	add	r4, r4, #1	; 0x1
30000890:	e5973000 	ldr	r3, [r7]
30000894:	e1540003 	cmp	r4, r3
30000898:	3afffff7 	bcc	3000087c <ClearScr+0x30>
3000089c:	e5983000 	ldr	r3, [r8]
300008a0:	e2855001 	add	r5, r5, #1	; 0x1
300008a4:	e1550003 	cmp	r5, r3
300008a8:	3affffef 	bcc	3000086c <ClearScr+0x20>
300008ac:	e8bd81f0 	ldmia	sp!, {r4, r5, r6, r7, r8, pc}
300008b0:	30004874 	andcc	r4, r0, r4, ror r8
300008b4:	3000486c 	andcc	r4, r0, ip, ror #16

300008b8 <ClearChar>:
300008b8:	e1a00800 	mov	r0, r0, lsl #16
300008bc:	e1a00820 	mov	r0, r0, lsr #16
300008c0:	e92d47f0 	stmdb	sp!, {r4, r5, r6, r7, r8, r9, sl, lr}
300008c4:	e1a0c980 	mov	ip, r0, lsl #19
300008c8:	e1a09180 	mov	r9, r0, lsl #3
300008cc:	e1a0582c 	mov	r5, ip, lsr #16
300008d0:	e2893008 	add	r3, r9, #8	; 0x8
300008d4:	e1a01801 	mov	r1, r1, lsl #16
300008d8:	e1550003 	cmp	r5, r3
300008dc:	e1a07002 	mov	r7, r2
300008e0:	e1a01821 	mov	r1, r1, lsr #16
300008e4:	a8bd87f0 	ldmgeia	sp!, {r4, r5, r6, r7, r8, r9, sl, pc}
300008e8:	e1a08181 	mov	r8, r1, lsl #3
300008ec:	e1a0a981 	mov	sl, r1, lsl #19
300008f0:	e2886008 	add	r6, r8, #8	; 0x8
300008f4:	e1a0482a 	mov	r4, sl, lsr #16
300008f8:	e2883008 	add	r3, r8, #8	; 0x8
300008fc:	e1540003 	cmp	r4, r3
30000900:	aa000008 	bge	30000928 <ClearChar+0x70>
30000904:	e1a01004 	mov	r1, r4
30000908:	e1a00005 	mov	r0, r5
3000090c:	e1a02007 	mov	r2, r7
30000910:	ebfffee7 	bl	300004b4 <PutPixel>
30000914:	e2843001 	add	r3, r4, #1	; 0x1
30000918:	e1a03803 	mov	r3, r3, lsl #16
3000091c:	e1a04823 	mov	r4, r3, lsr #16
30000920:	e1540006 	cmp	r4, r6
30000924:	bafffff6 	blt	30000904 <ClearChar+0x4c>
30000928:	e2853001 	add	r3, r5, #1	; 0x1
3000092c:	e1a03803 	mov	r3, r3, lsl #16
30000930:	e1a05823 	mov	r5, r3, lsr #16
30000934:	e2892008 	add	r2, r9, #8	; 0x8
30000938:	e1550002 	cmp	r5, r2
3000093c:	baffffec 	blt	300008f4 <ClearChar+0x3c>
30000940:	e8bd87f0 	ldmia	sp!, {r4, r5, r6, r7, r8, r9, sl, pc}

30000944 <ClearString>:
30000944:	e1a02802 	mov	r2, r2, lsl #16
30000948:	e92d41f0 	stmdb	sp!, {r4, r5, r6, r7, r8, lr}
3000094c:	e1a08822 	mov	r8, r2, lsr #16
30000950:	e3a04000 	mov	r4, #0	; 0x0
30000954:	e1a00800 	mov	r0, r0, lsl #16
30000958:	e1a01801 	mov	r1, r1, lsl #16
3000095c:	e1540008 	cmp	r4, r8
30000960:	e1a07003 	mov	r7, r3
30000964:	e1a06820 	mov	r6, r0, lsr #16
30000968:	e1a05821 	mov	r5, r1, lsr #16
3000096c:	28bd81f0 	ldmcsia	sp!, {r4, r5, r6, r7, r8, pc}
30000970:	e0860004 	add	r0, r6, r4
30000974:	e1a00800 	mov	r0, r0, lsl #16
30000978:	e1a00820 	mov	r0, r0, lsr #16
3000097c:	e1a01005 	mov	r1, r5
30000980:	e1a02007 	mov	r2, r7
30000984:	ebffffcb 	bl	300008b8 <ClearChar>
30000988:	e2843001 	add	r3, r4, #1	; 0x1
3000098c:	e1a03803 	mov	r3, r3, lsl #16
30000990:	e1a04823 	mov	r4, r3, lsr #16
30000994:	e1540008 	cmp	r4, r8
30000998:	3afffff4 	bcc	30000970 <ClearString+0x2c>
3000099c:	e8bd81f0 	ldmia	sp!, {r4, r5, r6, r7, r8, pc}

300009a0 <Scroll>:
300009a0:	e92d47f0 	stmdb	sp!, {r4, r5, r6, r7, r8, r9, sl, lr}
300009a4:	e59f309c 	ldr	r3, [pc, #156]	; 30000a48 <.text+0xa48>
300009a8:	e3a07000 	mov	r7, #0	; 0x0
300009ac:	e5932000 	ldr	r2, [r3]
300009b0:	e2422010 	sub	r2, r2, #16	; 0x10
300009b4:	e1570002 	cmp	r7, r2
300009b8:	28bd87f0 	ldmcsia	sp!, {r4, r5, r6, r7, r8, r9, sl, pc}
300009bc:	e59fa088 	ldr	sl, [pc, #136]	; 30000a4c <.text+0xa4c>
300009c0:	e59f9088 	ldr	r9, [pc, #136]	; 30000a50 <.text+0xa50>
300009c4:	e1a08002 	mov	r8, r2
300009c8:	e59a3000 	ldr	r3, [sl]
300009cc:	e3a0e000 	mov	lr, #0	; 0x0
300009d0:	e15e0003 	cmp	lr, r3
300009d4:	2a000015 	bcs	30000a30 <Scroll+0x90>
300009d8:	e1a04003 	mov	r4, r3
300009dc:	e2873008 	add	r3, r7, #8	; 0x8
300009e0:	e0060394 	mul	r6, r4, r3
300009e4:	e0050794 	mul	r5, r4, r7
300009e8:	e599c000 	ldr	ip, [r9]
300009ec:	e086300e 	add	r3, r6, lr
300009f0:	e1a03083 	mov	r3, r3, lsl #1
300009f4:	e083200c 	add	r2, r3, ip
300009f8:	e5d20001 	ldrb	r0, [r2, #1]
300009fc:	e7d3100c 	ldrb	r1, [r3, ip]
30000a00:	e28e3001 	add	r3, lr, #1	; 0x1
30000a04:	e1a03803 	mov	r3, r3, lsl #16
30000a08:	e085200e 	add	r2, r5, lr
30000a0c:	e1811400 	orr	r1, r1, r0, lsl #8
30000a10:	e1a02082 	mov	r2, r2, lsl #1
30000a14:	e1a0e823 	mov	lr, r3, lsr #16
30000a18:	e1a00441 	mov	r0, r1, asr #8
30000a1c:	e082300c 	add	r3, r2, ip
30000a20:	e15e0004 	cmp	lr, r4
30000a24:	e7c2100c 	strb	r1, [r2, ip]
30000a28:	e5c30001 	strb	r0, [r3, #1]
30000a2c:	3affffee 	bcc	300009ec <Scroll+0x4c>
30000a30:	e2873001 	add	r3, r7, #1	; 0x1
30000a34:	e1a03803 	mov	r3, r3, lsl #16
30000a38:	e1a07823 	mov	r7, r3, lsr #16
30000a3c:	e1570008 	cmp	r7, r8
30000a40:	3affffe0 	bcc	300009c8 <Scroll+0x28>
30000a44:	e8bd87f0 	ldmia	sp!, {r4, r5, r6, r7, r8, r9, sl, pc}
30000a48:	30004874 	andcc	r4, r0, r4, ror r8
30000a4c:	3000486c 	andcc	r4, r0, ip, ror #16
30000a50:	30004870 	andcc	r4, r0, r0, ror r8

30000a54 <VideoInit>:
30000a54:	e59f0040 	ldr	r0, [pc, #64]	; 30000a9c <.text+0xa9c>
30000a58:	e3a0301f 	mov	r3, #31	; 0x1f
30000a5c:	e5c03003 	strb	r3, [r0, #3]
30000a60:	e59f3038 	ldr	r3, [pc, #56]	; 30000aa0 <.text+0xaa0>
30000a64:	e3a01000 	mov	r1, #0	; 0x0
30000a68:	e59fc034 	ldr	ip, [pc, #52]	; 30000aa4 <.text+0xaa4>
30000a6c:	e3a02007 	mov	r2, #7	; 0x7
30000a70:	e5831000 	str	r1, [r3]
30000a74:	e59f302c 	ldr	r3, [pc, #44]	; 30000aa8 <.text+0xaa8>
30000a78:	e5cc2000 	strb	r2, [ip]
30000a7c:	e2822034 	add	r2, r2, #52	; 0x34
30000a80:	e5c02002 	strb	r2, [r0, #2]
30000a84:	e5831000 	str	r1, [r3]
30000a88:	e5c01000 	strb	r1, [r0]
30000a8c:	e5c01001 	strb	r1, [r0, #1]
30000a90:	e5cc1001 	strb	r1, [ip, #1]
30000a94:	e5cc1002 	strb	r1, [ip, #2]
30000a98:	e1a0f00e 	mov	pc, lr
30000a9c:	300047a0 	andcc	r4, r0, r0, lsr #15
30000aa0:	30004884 	andcc	r4, r0, r4, lsl #17
30000aa4:	3000487c 	andcc	r4, r0, ip, ror r8
30000aa8:	30004880 	andcc	r4, r0, r0, lsl #17

30000aac <__PutChar>:
30000aac:	e92d4ff0 	stmdb	sp!, {r4, r5, r6, r7, r8, r9, sl, fp, lr}
30000ab0:	e1a02182 	mov	r2, r2, lsl #3
30000ab4:	e3c28007 	bic	r8, r2, #7	; 0x7
30000ab8:	e3a02000 	mov	r2, #0	; 0x0
30000abc:	e1a08a88 	mov	r8, r8, lsl #21
30000ac0:	e1a09000 	mov	r9, r0
30000ac4:	e1a06001 	mov	r6, r1
30000ac8:	e1a0a003 	mov	sl, r3
30000acc:	e1a08aa8 	mov	r8, r8, lsr #21
30000ad0:	e24dd004 	sub	sp, sp, #4	; 0x4
30000ad4:	e58d2000 	str	r2, [sp]
30000ad8:	e59f3070 	ldr	r3, [pc, #112]	; 30000b50 <.text+0xb50>
30000adc:	e1a0b088 	mov	fp, r8, lsl #1
30000ae0:	e3a05080 	mov	r5, #128	; 0x80
30000ae4:	e3a04000 	mov	r4, #0	; 0x0
30000ae8:	e08b7003 	add	r7, fp, r3
30000aec:	ea000001 	b	30000af8 <__PutChar+0x4c>
30000af0:	e3540007 	cmp	r4, #7	; 0x7
30000af4:	ca00000a 	bgt	30000b24 <__PutChar+0x78>
30000af8:	e5d73001 	ldrb	r3, [r7, #1]
30000afc:	e1130005 	tst	r3, r5
30000b00:	e0840009 	add	r0, r4, r9
30000b04:	e1a050a5 	mov	r5, r5, lsr #1
30000b08:	e2844001 	add	r4, r4, #1	; 0x1
30000b0c:	e1a01006 	mov	r1, r6
30000b10:	e1a0200a 	mov	r2, sl
30000b14:	0afffff5 	beq	30000af0 <__PutChar+0x44>
30000b18:	ebfffe65 	bl	300004b4 <PutPixel>
30000b1c:	e3540007 	cmp	r4, #7	; 0x7
30000b20:	dafffff4 	ble	30000af8 <__PutChar+0x4c>
30000b24:	e59d2000 	ldr	r2, [sp]
30000b28:	e2883001 	add	r3, r8, #1	; 0x1
30000b2c:	e2822001 	add	r2, r2, #1	; 0x1
30000b30:	e1a03803 	mov	r3, r3, lsl #16
30000b34:	e3520007 	cmp	r2, #7	; 0x7
30000b38:	e58d2000 	str	r2, [sp]
30000b3c:	e2866001 	add	r6, r6, #1	; 0x1
30000b40:	e1a08823 	mov	r8, r3, lsr #16
30000b44:	daffffe3 	ble	30000ad8 <__PutChar+0x2c>
30000b48:	e28dd004 	add	sp, sp, #4	; 0x4
30000b4c:	e8bd8ff0 	ldmia	sp!, {r4, r5, r6, r7, r8, r9, sl, fp, pc}
30000b50:	300036a0 	andcc	r3, r0, r0, lsr #13

30000b54 <kprintc>:
30000b54:	e92d4070 	stmdb	sp!, {r4, r5, r6, lr}
30000b58:	e20040ff 	and	r4, r0, #255	; 0xff
30000b5c:	e354000a 	cmp	r4, #10	; 0xa
30000b60:	0a00002c 	beq	30000c18 <kprintc+0xc4>
30000b64:	e354000d 	cmp	r4, #13	; 0xd
30000b68:	13540008 	cmpne	r4, #8	; 0x8
30000b6c:	059f50f8 	ldreq	r5, [pc, #248]	; 30000c6c <.text+0xc6c>
30000b70:	1a000013 	bne	30000bc4 <kprintc+0x70>
30000b74:	e59f60f4 	ldr	r6, [pc, #244]	; 30000c70 <.text+0xc70>
30000b78:	e3540008 	cmp	r4, #8	; 0x8
30000b7c:	0a00002b 	beq	30000c30 <kprintc+0xdc>
30000b80:	e5d63002 	ldrb	r3, [r6, #2]
30000b84:	e5d52001 	ldrb	r2, [r5, #1]
30000b88:	e1520003 	cmp	r2, r3
30000b8c:	85d53002 	ldrhib	r3, [r5, #2]
30000b90:	82833001 	addhi	r3, r3, #1	; 0x1
30000b94:	85c53002 	strhib	r3, [r5, #2]
30000b98:	85d62000 	ldrhib	r2, [r6]
30000b9c:	e59f10c8 	ldr	r1, [pc, #200]	; 30000c6c <.text+0xc6c>
30000ba0:	e59f30c8 	ldr	r3, [pc, #200]	; 30000c70 <.text+0xc70>
30000ba4:	85c52001 	strhib	r2, [r5, #1]
30000ba8:	e5d33003 	ldrb	r3, [r3, #3]
30000bac:	e5d12002 	ldrb	r2, [r1, #2]
30000bb0:	e1520003 	cmp	r2, r3
30000bb4:	98bd8070 	ldmlsia	sp!, {r4, r5, r6, pc}
30000bb8:	e5c13002 	strb	r3, [r1, #2]
30000bbc:	e8bd4070 	ldmia	sp!, {r4, r5, r6, lr}
30000bc0:	eaffff76 	b	300009a0 <Scroll>
30000bc4:	e3540009 	cmp	r4, #9	; 0x9
30000bc8:	059f509c 	ldreq	r5, [pc, #156]	; 30000c6c <.text+0xc6c>
30000bcc:	059f609c 	ldreq	r6, [pc, #156]	; 30000c70 <.text+0xc70>
30000bd0:	0affffea 	beq	30000b80 <kprintc+0x2c>
30000bd4:	e59f5090 	ldr	r5, [pc, #144]	; 30000c6c <.text+0xc6c>
30000bd8:	e5d50001 	ldrb	r0, [r5, #1]
30000bdc:	e350003b 	cmp	r0, #59	; 0x3b
30000be0:	8affffe3 	bhi	30000b74 <kprintc+0x20>
30000be4:	e5d51002 	ldrb	r1, [r5, #2]
30000be8:	e3510020 	cmp	r1, #32	; 0x20
30000bec:	8affffe0 	bhi	30000b74 <kprintc+0x20>
30000bf0:	e5d53000 	ldrb	r3, [r5]
30000bf4:	e1a00180 	mov	r0, r0, lsl #3
30000bf8:	e1a01181 	mov	r1, r1, lsl #3
30000bfc:	e1a02004 	mov	r2, r4
30000c00:	ebffffa9 	bl	30000aac <__PutChar>
30000c04:	e5d53001 	ldrb	r3, [r5, #1]
30000c08:	e59f6060 	ldr	r6, [pc, #96]	; 30000c70 <.text+0xc70>
30000c0c:	e2833001 	add	r3, r3, #1	; 0x1
30000c10:	e5c53001 	strb	r3, [r5, #1]
30000c14:	eaffffd7 	b	30000b78 <kprintc+0x24>
30000c18:	e59f6050 	ldr	r6, [pc, #80]	; 30000c70 <.text+0xc70>
30000c1c:	e5d63002 	ldrb	r3, [r6, #2]
30000c20:	e59f5044 	ldr	r5, [pc, #68]	; 30000c6c <.text+0xc6c>
30000c24:	e2833001 	add	r3, r3, #1	; 0x1
30000c28:	e5c53001 	strb	r3, [r5, #1]
30000c2c:	eaffffd3 	b	30000b80 <kprintc+0x2c>
30000c30:	e5d63000 	ldrb	r3, [r6]
30000c34:	e5d52001 	ldrb	r2, [r5, #1]
30000c38:	e2833002 	add	r3, r3, #2	; 0x2
30000c3c:	e1520003 	cmp	r2, r3
30000c40:	daffffce 	ble	30000b80 <kprintc+0x2c>
30000c44:	e2423001 	sub	r3, r2, #1	; 0x1
30000c48:	e5c53001 	strb	r3, [r5, #1]
30000c4c:	e5d51002 	ldrb	r1, [r5, #2]
30000c50:	e3a02020 	mov	r2, #32	; 0x20
30000c54:	e1a01181 	mov	r1, r1, lsl #3
30000c58:	e5d50001 	ldrb	r0, [r5, #1]
30000c5c:	e5d53000 	ldrb	r3, [r5]
30000c60:	e1a00180 	mov	r0, r0, lsl #3
30000c64:	ebffff90 	bl	30000aac <__PutChar>
30000c68:	eaffffc4 	b	30000b80 <kprintc+0x2c>
30000c6c:	3000487c 	andcc	r4, r0, ip, ror r8
30000c70:	300047a0 	andcc	r4, r0, r0, lsr #15

30000c74 <ioConsolePutChar>:
30000c74:	e20000ff 	and	r0, r0, #255	; 0xff
30000c78:	eaffffb5 	b	30000b54 <kprintc>

30000c7c <ioConsolePutString>:
30000c7c:	e92d4030 	stmdb	sp!, {r4, r5, lr}
30000c80:	e59f3068 	ldr	r3, [pc, #104]	; 30000cf0 <.text+0xcf0>
30000c84:	e3500000 	cmp	r0, #0	; 0x0
30000c88:	11a05000 	movne	r5, r0
30000c8c:	01a05003 	moveq	r5, r3
30000c90:	e3a04000 	mov	r4, #0	; 0x0
30000c94:	e5d53000 	ldrb	r3, [r5]
30000c98:	e3530000 	cmp	r3, #0	; 0x0
30000c9c:	1a000007 	bne	30000cc0 <ioConsolePutString+0x44>
30000ca0:	e8bd8030 	ldmia	sp!, {r4, r5, pc}
30000ca4:	e7d40005 	ldrb	r0, [r4, r5]
30000ca8:	e2844001 	add	r4, r4, #1	; 0x1
30000cac:	ebfffff0 	bl	30000c74 <ioConsolePutChar>
30000cb0:	e7d53004 	ldrb	r3, [r5, r4]
30000cb4:	e3530000 	cmp	r3, #0	; 0x0
30000cb8:	13540b01 	cmpne	r4, #1024	; 0x400
30000cbc:	aa00000a 	bge	30000cec <ioConsolePutString+0x70>
30000cc0:	e353000a 	cmp	r3, #10	; 0xa
30000cc4:	e3a0000d 	mov	r0, #13	; 0xd
30000cc8:	1afffff5 	bne	30000ca4 <ioConsolePutString+0x28>
30000ccc:	ebffffe8 	bl	30000c74 <ioConsolePutChar>
30000cd0:	e7d40005 	ldrb	r0, [r4, r5]
30000cd4:	e2844001 	add	r4, r4, #1	; 0x1
30000cd8:	ebffffe5 	bl	30000c74 <ioConsolePutChar>
30000cdc:	e7d53004 	ldrb	r3, [r5, r4]
30000ce0:	e3530000 	cmp	r3, #0	; 0x0
30000ce4:	13540b01 	cmpne	r4, #1024	; 0x400
30000ce8:	bafffff4 	blt	30000cc0 <ioConsolePutString+0x44>
30000cec:	e8bd8030 	ldmia	sp!, {r4, r5, pc}
30000cf0:	30003440 	andcc	r3, r0, r0, asr #8

30000cf4 <str_len>:
30000cf4:	e1a02000 	mov	r2, r0
30000cf8:	ea000009 	b	30000d24 <str_len+0x30>
30000cfc:	e5f03001 	ldrb	r3, [r0, #1]!
30000d00:	e3530000 	cmp	r3, #0	; 0x0
30000d04:	0a000009 	beq	30000d30 <str_len+0x3c>
30000d08:	e5f03001 	ldrb	r3, [r0, #1]!
30000d0c:	e3530000 	cmp	r3, #0	; 0x0
30000d10:	0a000006 	beq	30000d30 <str_len+0x3c>
30000d14:	e5f03001 	ldrb	r3, [r0, #1]!
30000d18:	e3530000 	cmp	r3, #0	; 0x0
30000d1c:	0a000003 	beq	30000d30 <str_len+0x3c>
30000d20:	e2800001 	add	r0, r0, #1	; 0x1
30000d24:	e5d03000 	ldrb	r3, [r0]
30000d28:	e3530000 	cmp	r3, #0	; 0x0
30000d2c:	1afffff2 	bne	30000cfc <str_len+0x8>
30000d30:	e0620000 	rsb	r0, r2, r0
30000d34:	e1a0f00e 	mov	pc, lr

30000d38 <str_cpy>:
30000d38:	e4d13001 	ldrb	r3, [r1], #1
30000d3c:	e3530000 	cmp	r3, #0	; 0x0
30000d40:	e4c03001 	strb	r3, [r0], #1
30000d44:	1afffffb 	bne	30000d38 <str_cpy>
30000d48:	e1a0f00e 	mov	pc, lr

30000d4c <format_long>:
30000d4c:	e92d47f0 	stmdb	sp!, {r4, r5, r6, r7, r8, r9, sl, lr}
30000d50:	e1a04001 	mov	r4, r1
30000d54:	e1a05000 	mov	r5, r0
30000d58:	e1a0a003 	mov	sl, r3
30000d5c:	e20220ff 	and	r2, r2, #255	; 0xff
30000d60:	e3a06000 	mov	r6, #0	; 0x0
30000d64:	e59f91b0 	ldr	r9, [pc, #432]	; 30000f1c <.text+0xf1c>
30000d68:	e24dd02c 	sub	sp, sp, #44	; 0x2c
30000d6c:	e59dc050 	ldr	ip, [sp, #80]
30000d70:	e1a0c1ac 	mov	ip, ip, lsr #3
30000d74:	e20cc001 	and	ip, ip, #1	; 0x1
30000d78:	e01c1fa4 	ands	r1, ip, r4, lsr #31
30000d7c:	13a0302d 	movne	r3, #45	; 0x2d
30000d80:	e59d104c 	ldr	r1, [sp, #76]
30000d84:	12644000 	rsbne	r4, r4, #0	; 0x0
30000d88:	14c53001 	strneb	r3, [r5], #1
30000d8c:	1a000005 	bne	30000da8 <format_long+0x5c>
30000d90:	e3510000 	cmp	r1, #0	; 0x0
30000d94:	03a03000 	moveq	r3, #0	; 0x0
30000d98:	120c3001 	andne	r3, ip, #1	; 0x1
30000d9c:	e3530000 	cmp	r3, #0	; 0x0
30000da0:	15d13000 	ldrneb	r3, [r1]
30000da4:	14c53001 	strneb	r3, [r5], #1
30000da8:	e2423058 	sub	r3, r2, #88	; 0x58
30000dac:	e3530020 	cmp	r3, #32	; 0x20
30000db0:	979ff103 	ldrls	pc, [pc, r3, lsl #2]
30000db4:	ea00004f 	b	30000ef8 <.text+0xef8>
30000db8:	30000e40 	andcc	r0, r0, r0, asr #28
30000dbc:	30000ef8 	strccd	r0, [r0], -r8
30000dc0:	30000ef8 	strccd	r0, [r0], -r8
30000dc4:	30000ef8 	strccd	r0, [r0], -r8
30000dc8:	30000ef8 	strccd	r0, [r0], -r8
30000dcc:	30000ef8 	strccd	r0, [r0], -r8
30000dd0:	30000ef8 	strccd	r0, [r0], -r8
30000dd4:	30000ef8 	strccd	r0, [r0], -r8
30000dd8:	30000ef8 	strccd	r0, [r0], -r8
30000ddc:	30000ef8 	strccd	r0, [r0], -r8
30000de0:	30000ef8 	strccd	r0, [r0], -r8
30000de4:	30000ef8 	strccd	r0, [r0], -r8
30000de8:	30000f14 	andcc	r0, r0, r4, lsl pc
30000dec:	30000ef8 	strccd	r0, [r0], -r8
30000df0:	30000ef8 	strccd	r0, [r0], -r8
30000df4:	30000ef8 	strccd	r0, [r0], -r8
30000df8:	30000ef8 	strccd	r0, [r0], -r8
30000dfc:	30000ef8 	strccd	r0, [r0], -r8
30000e00:	30000ef8 	strccd	r0, [r0], -r8
30000e04:	30000ef8 	strccd	r0, [r0], -r8
30000e08:	30000ef8 	strccd	r0, [r0], -r8
30000e0c:	30000ef8 	strccd	r0, [r0], -r8
30000e10:	30000ef8 	strccd	r0, [r0], -r8
30000e14:	30000f0c 	andcc	r0, r0, ip, lsl #30
30000e18:	30000ef8 	strccd	r0, [r0], -r8
30000e1c:	30000ef8 	strccd	r0, [r0], -r8
30000e20:	30000ef8 	strccd	r0, [r0], -r8
30000e24:	30000ef8 	strccd	r0, [r0], -r8
30000e28:	30000ef8 	strccd	r0, [r0], -r8
30000e2c:	30000ef8 	strccd	r0, [r0], -r8
30000e30:	30000ef8 	strccd	r0, [r0], -r8
30000e34:	30000ef8 	strccd	r0, [r0], -r8
30000e38:	30000e3c 	andcc	r0, r0, ip, lsr lr
30000e3c:	e59f90dc 	ldr	r9, [pc, #220]	; 30000f20 <.text+0xf20>
30000e40:	e3a07010 	mov	r7, #16	; 0x10
30000e44:	e3540000 	cmp	r4, #0	; 0x0
30000e48:	05d93000 	ldreqb	r3, [r9]
30000e4c:	03a06001 	moveq	r6, #1	; 0x1
30000e50:	05cd3000 	streqb	r3, [sp]
30000e54:	0a00000b 	beq	30000e88 <.text+0xe88>
30000e58:	e1a0800d 	mov	r8, sp
30000e5c:	e1a00004 	mov	r0, r4
30000e60:	e1a01007 	mov	r1, r7
30000e64:	eb000355 	bl	30001bc0 <__umodsi3>
30000e68:	e7d03009 	ldrb	r3, [r0, r9]
30000e6c:	e1a01007 	mov	r1, r7
30000e70:	e1a00004 	mov	r0, r4
30000e74:	e4c83001 	strb	r3, [r8], #1
30000e78:	eb000314 	bl	30001ad0 <__udivsi3>
30000e7c:	e2504000 	subs	r4, r0, #0	; 0x0
30000e80:	e2866001 	add	r6, r6, #1	; 0x1
30000e84:	1afffff4 	bne	30000e5c <.text+0xe5c>
30000e88:	e35a0000 	cmp	sl, #0	; 0x0
30000e8c:	d3a03000 	movle	r3, #0	; 0x0
30000e90:	c3a03001 	movgt	r3, #1	; 0x1
30000e94:	e156000a 	cmp	r6, sl
30000e98:	a3a03000 	movge	r3, #0	; 0x0
30000e9c:	e3530000 	cmp	r3, #0	; 0x0
30000ea0:	0a000008 	beq	30000ec8 <.text+0xec8>
30000ea4:	e35a002b 	cmp	sl, #43	; 0x2b
30000ea8:	a3a0a02b 	movge	sl, #43	; 0x2b
30000eac:	e156000a 	cmp	r6, sl
30000eb0:	aa000004 	bge	30000ec8 <.text+0xec8>
30000eb4:	e066300a 	rsb	r3, r6, sl
30000eb8:	e3a02030 	mov	r2, #48	; 0x30
30000ebc:	e2533001 	subs	r3, r3, #1	; 0x1
30000ec0:	e4c52001 	strb	r2, [r5], #1
30000ec4:	1afffffc 	bne	30000ebc <.text+0xebc>
30000ec8:	e2566001 	subs	r6, r6, #1	; 0x1
30000ecc:	4a000006 	bmi	30000eec <.text+0xeec>
30000ed0:	e28d202c 	add	r2, sp, #44	; 0x2c
30000ed4:	e0863002 	add	r3, r6, r2
30000ed8:	e243202c 	sub	r2, r3, #44	; 0x2c
30000edc:	e4523001 	ldrb	r3, [r2], #-1
30000ee0:	e2566001 	subs	r6, r6, #1	; 0x1
30000ee4:	e4c53001 	strb	r3, [r5], #1
30000ee8:	5afffffb 	bpl	30000edc <.text+0xedc>
30000eec:	e3a03000 	mov	r3, #0	; 0x0
30000ef0:	e5c53000 	strb	r3, [r5]
30000ef4:	ea000002 	b	30000f04 <.text+0xf04>
30000ef8:	e1a00005 	mov	r0, r5
30000efc:	e59f1020 	ldr	r1, [pc, #32]	; 30000f24 <.text+0xf24>
30000f00:	ebffff8c 	bl	30000d38 <str_cpy>
30000f04:	e28dd02c 	add	sp, sp, #44	; 0x2c
30000f08:	e8bd87f0 	ldmia	sp!, {r4, r5, r6, r7, r8, r9, sl, pc}
30000f0c:	e3a07008 	mov	r7, #8	; 0x8
30000f10:	eaffffcb 	b	30000e44 <.text+0xe44>
30000f14:	e3a0700a 	mov	r7, #10	; 0xa
30000f18:	eaffffc9 	b	30000e44 <.text+0xe44>
30000f1c:	30003450 	andcc	r3, r0, r0, asr r4
30000f20:	30003464 	andcc	r3, r0, r4, ror #8
30000f24:	30003478 	andcc	r3, r0, r8, ror r4

30000f28 <f_to_l>:
30000f28:	e92d4030 	stmdb	sp!, {r4, r5, lr}
30000f2c:	e1a04000 	mov	r4, r0
30000f30:	e3a05000 	mov	r5, #0	; 0x0
30000f34:	ea000002 	b	30000f44 <f_to_l+0x1c>
30000f38:	eb00080a 	bl	30002f68 <__subsf3>
30000f3c:	e2855001 	add	r5, r5, #1	; 0x1
30000f40:	e1a04000 	mov	r4, r0
30000f44:	e3a01000 	mov	r1, #0	; 0x0
30000f48:	e1a00004 	mov	r0, r4
30000f4c:	eb00088b 	bl	30003180 <__gesf2>
30000f50:	e3500000 	cmp	r0, #0	; 0x0
30000f54:	e3a015fe 	mov	r1, #1065353216	; 0x3f800000
30000f58:	e1a00004 	mov	r0, r4
30000f5c:	aafffff5 	bge	30000f38 <f_to_l+0x10>
30000f60:	e2450001 	sub	r0, r5, #1	; 0x1
30000f64:	e8bd8030 	ldmia	sp!, {r4, r5, pc}

30000f68 <format_float>:
30000f68:	e92d4ff0 	stmdb	sp!, {r4, r5, r6, r7, r8, r9, sl, fp, lr}
30000f6c:	e28f4e1f 	add	r4, pc, #496	; 0x1f0
30000f70:	e8940030 	ldmia	r4, {r4, r5}
30000f74:	e1a0b002 	mov	fp, r2
30000f78:	e1a0a001 	mov	sl, r1
30000f7c:	e1a09000 	mov	r9, r0
30000f80:	e1a00001 	mov	r0, r1
30000f84:	e1a01002 	mov	r1, r2
30000f88:	e24dd038 	sub	sp, sp, #56	; 0x38
30000f8c:	e58d3008 	str	r3, [sp, #8]
30000f90:	e1a03005 	mov	r3, r5
30000f94:	e1a02004 	mov	r2, r4
30000f98:	e88d0030 	stmia	sp, {r4, r5}
30000f9c:	eb00078a 	bl	30002dcc <__gedf2>
30000fa0:	e3500000 	cmp	r0, #0	; 0x0
30000fa4:	d3a03030 	movle	r3, #48	; 0x30
30000fa8:	e3a04000 	mov	r4, #0	; 0x0
30000fac:	d4c93001 	strleb	r3, [r9], #1
30000fb0:	ca00003d 	bgt	300010ac <format_float+0x144>
30000fb4:	e59d2008 	ldr	r2, [sp, #8]
30000fb8:	e3a0302e 	mov	r3, #46	; 0x2e
30000fbc:	e3520000 	cmp	r2, #0	; 0x0
30000fc0:	e4c93001 	strb	r3, [r9], #1
30000fc4:	da000030 	ble	3000108c <format_float+0x124>
30000fc8:	e89d0003 	ldmia	sp, {r0, r1}
30000fcc:	e28f2f66 	add	r2, pc, #408	; 0x198
30000fd0:	e892000c 	ldmia	r2, {r2, r3}
30000fd4:	eb00061c 	bl	3000284c <__muldf3>
30000fd8:	e1a07001 	mov	r7, r1
30000fdc:	e1a06000 	mov	r6, r0
30000fe0:	e1a03007 	mov	r3, r7
30000fe4:	e1a02006 	mov	r2, r6
30000fe8:	e1a0100b 	mov	r1, fp
30000fec:	e1a0000a 	mov	r0, sl
30000ff0:	eb0006da 	bl	30002b60 <__divdf3>
30000ff4:	eb00079d 	bl	30002e70 <__truncdfsf2>
30000ff8:	ebffffca 	bl	30000f28 <f_to_l>
30000ffc:	e59d3008 	ldr	r3, [sp, #8]
30001000:	e88d00c0 	stmia	sp, {r6, r7}
30001004:	e2433001 	sub	r3, r3, #1	; 0x1
30001008:	e3500009 	cmp	r0, #9	; 0x9
3000100c:	959f4170 	ldrls	r4, [pc, #368]	; 30001184 <.text+0x1184>
30001010:	e1a08000 	mov	r8, r0
30001014:	e58d3008 	str	r3, [sp, #8]
30001018:	97d43000 	ldrlsb	r3, [r4, r0]
3000101c:	94c93001 	strlsb	r3, [r9], #1
30001020:	eb0005eb 	bl	300027d4 <__floatsidf>
30001024:	e3580000 	cmp	r8, #0	; 0x0
30001028:	e1a05001 	mov	r5, r1
3000102c:	e1a04000 	mov	r4, r0
30001030:	e28f2f4f 	add	r2, pc, #316	; 0x13c
30001034:	e892000c 	ldmia	r2, {r2, r3}
30001038:	ba000017 	blt	3000109c <format_float+0x134>
3000103c:	e1a03007 	mov	r3, r7
30001040:	e1a02006 	mov	r2, r6
30001044:	e1a01005 	mov	r1, r5
30001048:	e1a00004 	mov	r0, r4
3000104c:	eb0005fe 	bl	3000284c <__muldf3>
30001050:	e1a03001 	mov	r3, r1
30001054:	e1a02000 	mov	r2, r0
30001058:	e1a0100b 	mov	r1, fp
3000105c:	e1a0000a 	mov	r0, sl
30001060:	eb000517 	bl	300024c4 <__subdf3>
30001064:	e28f2e11 	add	r2, pc, #272	; 0x110
30001068:	e892000c 	ldmia	r2, {r2, r3}
3000106c:	e1a0b001 	mov	fp, r1
30001070:	e1a0a000 	mov	sl, r0
30001074:	eb000756 	bl	30002dd4 <__ledf2>
30001078:	e3500000 	cmp	r0, #0	; 0x0
3000107c:	da000002 	ble	3000108c <format_float+0x124>
30001080:	e59d5008 	ldr	r5, [sp, #8]
30001084:	e3550000 	cmp	r5, #0	; 0x0
30001088:	caffffce 	bgt	30000fc8 <format_float+0x60>
3000108c:	e3a03000 	mov	r3, #0	; 0x0
30001090:	e5c93000 	strb	r3, [r9]
30001094:	e28dd038 	add	sp, sp, #56	; 0x38
30001098:	e8bd8ff0 	ldmia	sp!, {r4, r5, r6, r7, r8, r9, sl, fp, pc}
3000109c:	eb000509 	bl	300024c8 <__adddf3>
300010a0:	e1a05001 	mov	r5, r1
300010a4:	e1a04000 	mov	r4, r0
300010a8:	eaffffe3 	b	3000103c <format_float+0xd4>
300010ac:	e1a0100b 	mov	r1, fp
300010b0:	e1a0000a 	mov	r0, sl
300010b4:	eb00076d 	bl	30002e70 <__truncdfsf2>
300010b8:	ebffff9a 	bl	30000f28 <f_to_l>
300010bc:	e1a08000 	mov	r8, r0
300010c0:	eb0005c3 	bl	300027d4 <__floatsidf>
300010c4:	e1580004 	cmp	r8, r4
300010c8:	e1a03001 	mov	r3, r1
300010cc:	e1a02000 	mov	r2, r0
300010d0:	ba00001d 	blt	3000114c <format_float+0x1e4>
300010d4:	e1a0100b 	mov	r1, fp
300010d8:	e1a0000a 	mov	r0, sl
300010dc:	eb0004f8 	bl	300024c4 <__subdf3>
300010e0:	e3580000 	cmp	r8, #0	; 0x0
300010e4:	e1a0b001 	mov	fp, r1
300010e8:	e1a0a000 	mov	sl, r0
300010ec:	0a00000c 	beq	30001124 <format_float+0x1bc>
300010f0:	e28d500c 	add	r5, sp, #12	; 0xc
300010f4:	e1a00008 	mov	r0, r8
300010f8:	e3a0100a 	mov	r1, #10	; 0xa
300010fc:	eb0002af 	bl	30001bc0 <__umodsi3>
30001100:	e59f207c 	ldr	r2, [pc, #124]	; 30001184 <.text+0x1184>
30001104:	e7d03002 	ldrb	r3, [r0, r2]
30001108:	e3a0100a 	mov	r1, #10	; 0xa
3000110c:	e1a00008 	mov	r0, r8
30001110:	e4c53001 	strb	r3, [r5], #1
30001114:	eb00026d 	bl	30001ad0 <__udivsi3>
30001118:	e2508000 	subs	r8, r0, #0	; 0x0
3000111c:	e2844001 	add	r4, r4, #1	; 0x1
30001120:	1afffff3 	bne	300010f4 <format_float+0x18c>
30001124:	e2544001 	subs	r4, r4, #1	; 0x1
30001128:	4affffa1 	bmi	30000fb4 <format_float+0x4c>
3000112c:	e28d5038 	add	r5, sp, #56	; 0x38
30001130:	e0843005 	add	r3, r4, r5
30001134:	e243202c 	sub	r2, r3, #44	; 0x2c
30001138:	e4523001 	ldrb	r3, [r2], #-1
3000113c:	e2544001 	subs	r4, r4, #1	; 0x1
30001140:	e4c93001 	strb	r3, [r9], #1
30001144:	5afffffb 	bpl	30001138 <format_float+0x1d0>
30001148:	eaffff99 	b	30000fb4 <format_float+0x4c>
3000114c:	e28f2020 	add	r2, pc, #32	; 0x20
30001150:	e892000c 	ldmia	r2, {r2, r3}
30001154:	eb0004db 	bl	300024c8 <__adddf3>
30001158:	e1a03001 	mov	r3, r1
3000115c:	e1a02000 	mov	r2, r0
30001160:	eaffffdb 	b	300010d4 <format_float+0x16c>
30001164:	3ff00000 	swicc	0x00f00000	; IMB
30001168:	00000000 	andeq	r0, r0, r0
3000116c:	3fb99999 	swicc	0x00b99999
30001170:	9999999a 	ldmlsib	r9, {r1, r3, r4, r7, r8, fp, ip, pc}
30001174:	41f00000 	mvnmis	r0, r0
	...
30001184:	30003494 	mulcc	r0, r4, r4

30001188 <myvsnprintf>:
30001188:	e92d4ff0 	stmdb	sp!, {r4, r5, r6, r7, r8, r9, sl, fp, lr}
3000118c:	e3a07000 	mov	r7, #0	; 0x0
30001190:	e2415001 	sub	r5, r1, #1	; 0x1
30001194:	e1a08002 	mov	r8, r2
30001198:	e1a0b003 	mov	fp, r3
3000119c:	e1a0a000 	mov	sl, r0
300011a0:	e7c57000 	strb	r7, [r5, r0]
300011a4:	e24dd03c 	sub	sp, sp, #60	; 0x3c
300011a8:	e5d22000 	ldrb	r2, [r2]
300011ac:	e20230ff 	and	r3, r2, #255	; 0xff
300011b0:	e1530007 	cmp	r3, r7
300011b4:	0a00000e 	beq	300011f4 <myvsnprintf+0x6c>
300011b8:	e3530025 	cmp	r3, #37	; 0x25
300011bc:	03a00000 	moveq	r0, #0	; 0x0
300011c0:	01a09000 	moveq	r9, r0
300011c4:	058d000c 	streq	r0, [sp, #12]
300011c8:	01a0e000 	moveq	lr, r0
300011cc:	0a00000f 	beq	30001210 <myvsnprintf+0x88>
300011d0:	e3550000 	cmp	r5, #0	; 0x0
300011d4:	14ca2001 	strneb	r2, [sl], #1
300011d8:	12455001 	subne	r5, r5, #1	; 0x1
300011dc:	e2877001 	add	r7, r7, #1	; 0x1
300011e0:	e2888001 	add	r8, r8, #1	; 0x1
300011e4:	e5d82000 	ldrb	r2, [r8]
300011e8:	e20230ff 	and	r3, r2, #255	; 0xff
300011ec:	e3530000 	cmp	r3, #0	; 0x0
300011f0:	1afffff0 	bne	300011b8 <myvsnprintf+0x30>
300011f4:	e3550000 	cmp	r5, #0	; 0x0
300011f8:	13a03000 	movne	r3, #0	; 0x0
300011fc:	15ca3000 	strneb	r3, [sl]
30001200:	e1a00007 	mov	r0, r7
30001204:	e28dd03c 	add	sp, sp, #60	; 0x3c
30001208:	e8bd8ff0 	ldmia	sp!, {r4, r5, r6, r7, r8, r9, sl, fp, pc}
3000120c:	e3899012 	orr	r9, r9, #18	; 0x12
30001210:	e5f82001 	ldrb	r2, [r8, #1]!
30001214:	e2423020 	sub	r3, r2, #32	; 0x20
30001218:	e3530058 	cmp	r3, #88	; 0x58
3000121c:	979ff103 	ldrls	pc, [pc, r3, lsl #2]
30001220:	ea0000f2 	b	300015f0 <.text+0x15f0>
30001224:	3000161c 	andcc	r1, r0, ip, lsl r6
30001228:	300015f0 	strccd	r1, [r0], -r0
3000122c:	300015f0 	strccd	r1, [r0], -r0
30001230:	30001614 	andcc	r1, r0, r4, lsl r6
30001234:	300015f0 	strccd	r1, [r0], -r0
30001238:	300015f0 	strccd	r1, [r0], -r0
3000123c:	300015f0 	strccd	r1, [r0], -r0
30001240:	300015f0 	strccd	r1, [r0], -r0
30001244:	300015f0 	strccd	r1, [r0], -r0
30001248:	300015f0 	strccd	r1, [r0], -r0
3000124c:	300015f0 	strccd	r1, [r0], -r0
30001250:	30001674 	andcc	r1, r0, r4, ror r6
30001254:	300015f0 	strccd	r1, [r0], -r0
30001258:	3000166c 	andcc	r1, r0, ip, ror #12
3000125c:	30001630 	andcc	r1, r0, r0, lsr r6
30001260:	300015f0 	strccd	r1, [r0], -r0
30001264:	30001628 	andcc	r1, r0, r8, lsr #12
30001268:	30001714 	andcc	r1, r0, r4, lsl r7
3000126c:	30001714 	andcc	r1, r0, r4, lsl r7
30001270:	30001714 	andcc	r1, r0, r4, lsl r7
30001274:	30001714 	andcc	r1, r0, r4, lsl r7
30001278:	30001714 	andcc	r1, r0, r4, lsl r7
3000127c:	30001714 	andcc	r1, r0, r4, lsl r7
30001280:	30001714 	andcc	r1, r0, r4, lsl r7
30001284:	30001714 	andcc	r1, r0, r4, lsl r7
30001288:	30001714 	andcc	r1, r0, r4, lsl r7
3000128c:	300015f0 	strccd	r1, [r0], -r0
30001290:	300015f0 	strccd	r1, [r0], -r0
30001294:	300015f0 	strccd	r1, [r0], -r0
30001298:	300015f0 	strccd	r1, [r0], -r0
3000129c:	300015f0 	strccd	r1, [r0], -r0
300012a0:	300015f0 	strccd	r1, [r0], -r0
300012a4:	300015f0 	strccd	r1, [r0], -r0
300012a8:	300015f0 	strccd	r1, [r0], -r0
300012ac:	300015f0 	strccd	r1, [r0], -r0
300012b0:	300015f0 	strccd	r1, [r0], -r0
300012b4:	3000170c 	andcc	r1, r0, ip, lsl #14
300012b8:	300015f0 	strccd	r1, [r0], -r0
300012bc:	300015f0 	strccd	r1, [r0], -r0
300012c0:	300015f0 	strccd	r1, [r0], -r0
300012c4:	300015f0 	strccd	r1, [r0], -r0
300012c8:	300015f0 	strccd	r1, [r0], -r0
300012cc:	300015f0 	strccd	r1, [r0], -r0
300012d0:	300015f0 	strccd	r1, [r0], -r0
300012d4:	300015f0 	strccd	r1, [r0], -r0
300012d8:	300015f0 	strccd	r1, [r0], -r0
300012dc:	300015f0 	strccd	r1, [r0], -r0
300012e0:	30001520 	andcc	r1, r0, r0, lsr #10
300012e4:	300015f0 	strccd	r1, [r0], -r0
300012e8:	300015f0 	strccd	r1, [r0], -r0
300012ec:	300015f0 	strccd	r1, [r0], -r0
300012f0:	300015f0 	strccd	r1, [r0], -r0
300012f4:	300015f0 	strccd	r1, [r0], -r0
300012f8:	30001704 	andcc	r1, r0, r4, lsl #14
300012fc:	300015f0 	strccd	r1, [r0], -r0
30001300:	300015f0 	strccd	r1, [r0], -r0
30001304:	300016fc 	strccd	r1, [r0], -ip
30001308:	300015f0 	strccd	r1, [r0], -r0
3000130c:	300015f0 	strccd	r1, [r0], -r0
30001310:	300015f0 	strccd	r1, [r0], -r0
30001314:	300015f0 	strccd	r1, [r0], -r0
30001318:	300015f0 	strccd	r1, [r0], -r0
3000131c:	300015f0 	strccd	r1, [r0], -r0
30001320:	300015f0 	strccd	r1, [r0], -r0
30001324:	300015f0 	strccd	r1, [r0], -r0
30001328:	300015f0 	strccd	r1, [r0], -r0
3000132c:	300015f0 	strccd	r1, [r0], -r0
30001330:	300016e4 	andcc	r1, r0, r4, ror #13
30001334:	30001388 	andcc	r1, r0, r8, lsl #7
30001338:	300015f0 	strccd	r1, [r0], -r0
3000133c:	3000167c 	andcc	r1, r0, ip, ror r6
30001340:	300015f0 	strccd	r1, [r0], -r0
30001344:	3000120c 	andcc	r1, r0, ip, lsl #4
30001348:	30001388 	andcc	r1, r0, r8, lsl #7
3000134c:	300015f0 	strccd	r1, [r0], -r0
30001350:	300015f0 	strccd	r1, [r0], -r0
30001354:	300015e8 	andcc	r1, r0, r8, ror #11
30001358:	300015f0 	strccd	r1, [r0], -r0
3000135c:	300015f0 	strccd	r1, [r0], -r0
30001360:	30001524 	andcc	r1, r0, r4, lsr #10
30001364:	30001554 	andcc	r1, r0, r4, asr r5
30001368:	300015f0 	strccd	r1, [r0], -r0
3000136c:	300015f0 	strccd	r1, [r0], -r0
30001370:	30001564 	andcc	r1, r0, r4, ror #10
30001374:	300015f0 	strccd	r1, [r0], -r0
30001378:	3000138c 	andcc	r1, r0, ip, lsl #7
3000137c:	300015f0 	strccd	r1, [r0], -r0
30001380:	300015f0 	strccd	r1, [r0], -r0
30001384:	3000155c 	andcc	r1, r0, ip, asr r5
30001388:	e3899008 	orr	r9, r9, #8	; 0x8
3000138c:	e3a0c064 	mov	ip, #100	; 0x64
30001390:	e3190008 	tst	r9, #8	; 0x8
30001394:	0a000065 	beq	30001530 <.text+0x1530>
30001398:	e3190011 	tst	r9, #17	; 0x11
3000139c:	1a0000ee 	bne	3000175c <.text+0x175c>
300013a0:	e3190012 	tst	r9, #18	; 0x12
300013a4:	0a0000ec 	beq	3000175c <.text+0x175c>
300013a8:	e59b3000 	ldr	r3, [fp]
300013ac:	e1a03803 	mov	r3, r3, lsl #16
300013b0:	e28bb004 	add	fp, fp, #4	; 0x4
300013b4:	e1a01843 	mov	r1, r3, asr #16
300013b8:	e28d4010 	add	r4, sp, #16	; 0x10
300013bc:	e1a03000 	mov	r3, r0
300013c0:	e1a0200c 	mov	r2, ip
300013c4:	e1a00004 	mov	r0, r4
300013c8:	e58dc008 	str	ip, [sp, #8]
300013cc:	e3a06000 	mov	r6, #0	; 0x0
300013d0:	e58de000 	str	lr, [sp]
300013d4:	e58d9004 	str	r9, [sp, #4]
300013d8:	ebfffe5b 	bl	30000d4c <format_long>
300013dc:	e3190001 	tst	r9, #1	; 0x1
300013e0:	e59dc008 	ldr	ip, [sp, #8]
300013e4:	0a000008 	beq	3000140c <.text+0x140c>
300013e8:	e5dd3010 	ldrb	r3, [sp, #16]
300013ec:	e3530030 	cmp	r3, #48	; 0x30
300013f0:	0a0000e2 	beq	30001780 <.text+0x1780>
300013f4:	e35c006f 	cmp	ip, #111	; 0x6f
300013f8:	03a06001 	moveq	r6, #1	; 0x1
300013fc:	0a000002 	beq	3000140c <.text+0x140c>
30001400:	ca0000d7 	bgt	30001764 <.text+0x1764>
30001404:	e35c0058 	cmp	ip, #88	; 0x58
30001408:	03a06002 	moveq	r6, #2	; 0x2
3000140c:	e1a00004 	mov	r0, r4
30001410:	e58dc008 	str	ip, [sp, #8]
30001414:	ebfffe36 	bl	30000cf4 <str_len>
30001418:	e59d100c 	ldr	r1, [sp, #12]
3000141c:	e0603001 	rsb	r3, r0, r1
30001420:	e1a02000 	mov	r2, r0
30001424:	e0660003 	rsb	r0, r6, r3
30001428:	e3500000 	cmp	r0, #0	; 0x0
3000142c:	e59dc008 	ldr	ip, [sp, #8]
30001430:	da000016 	ble	30001490 <.text+0x1490>
30001434:	e3190002 	tst	r9, #2	; 0x2
30001438:	1a000014 	bne	30001490 <.text+0x1490>
3000143c:	e2500001 	subs	r0, r0, #1	; 0x1
30001440:	3a000012 	bcc	30001490 <.text+0x1490>
30001444:	e1a03129 	mov	r3, r9, lsr #2
30001448:	e2033001 	and	r3, r3, #1	; 0x1
3000144c:	e3a0e030 	mov	lr, #48	; 0x30
30001450:	e3a01020 	mov	r1, #32	; 0x20
30001454:	ea000005 	b	30001470 <.text+0x1470>
30001458:	e3550000 	cmp	r5, #0	; 0x0
3000145c:	14cae001 	strneb	lr, [sl], #1
30001460:	12455001 	subne	r5, r5, #1	; 0x1
30001464:	e2500001 	subs	r0, r0, #1	; 0x1
30001468:	e2877001 	add	r7, r7, #1	; 0x1
3000146c:	3a000007 	bcc	30001490 <.text+0x1490>
30001470:	e3530000 	cmp	r3, #0	; 0x0
30001474:	1afffff7 	bne	30001458 <.text+0x1458>
30001478:	e3550000 	cmp	r5, #0	; 0x0
3000147c:	12455001 	subne	r5, r5, #1	; 0x1
30001480:	14ca1001 	strneb	r1, [sl], #1
30001484:	e2500001 	subs	r0, r0, #1	; 0x1
30001488:	e2877001 	add	r7, r7, #1	; 0x1
3000148c:	2afffff7 	bcs	30001470 <.text+0x1470>
30001490:	e3560000 	cmp	r6, #0	; 0x0
30001494:	0a000006 	beq	300014b4 <.text+0x14b4>
30001498:	e3550000 	cmp	r5, #0	; 0x0
3000149c:	13a03030 	movne	r3, #48	; 0x30
300014a0:	14ca3001 	strneb	r3, [sl], #1
300014a4:	12455001 	subne	r5, r5, #1	; 0x1
300014a8:	e3560002 	cmp	r6, #2	; 0x2
300014ac:	e2877001 	add	r7, r7, #1	; 0x1
300014b0:	0a0000ad 	beq	3000176c <.text+0x176c>
300014b4:	e3520000 	cmp	r2, #0	; 0x0
300014b8:	da000009 	ble	300014e4 <.text+0x14e4>
300014bc:	e1a06002 	mov	r6, r2
300014c0:	e28d2010 	add	r2, sp, #16	; 0x10
300014c4:	e3550000 	cmp	r5, #0	; 0x0
300014c8:	15d23000 	ldrneb	r3, [r2]
300014cc:	12455001 	subne	r5, r5, #1	; 0x1
300014d0:	14ca3001 	strneb	r3, [sl], #1
300014d4:	e2566001 	subs	r6, r6, #1	; 0x1
300014d8:	e2877001 	add	r7, r7, #1	; 0x1
300014dc:	e2822001 	add	r2, r2, #1	; 0x1
300014e0:	1afffff7 	bne	300014c4 <.text+0x14c4>
300014e4:	e3500000 	cmp	r0, #0	; 0x0
300014e8:	daffff3c 	ble	300011e0 <myvsnprintf+0x58>
300014ec:	e3190002 	tst	r9, #2	; 0x2
300014f0:	0affff3a 	beq	300011e0 <myvsnprintf+0x58>
300014f4:	e2500001 	subs	r0, r0, #1	; 0x1
300014f8:	3affff38 	bcc	300011e0 <myvsnprintf+0x58>
300014fc:	e3a03020 	mov	r3, #32	; 0x20
30001500:	e3550000 	cmp	r5, #0	; 0x0
30001504:	e2400001 	sub	r0, r0, #1	; 0x1
30001508:	12455001 	subne	r5, r5, #1	; 0x1
3000150c:	14ca3001 	strneb	r3, [sl], #1
30001510:	e3700001 	cmn	r0, #1	; 0x1
30001514:	e2877001 	add	r7, r7, #1	; 0x1
30001518:	1afffff8 	bne	30001500 <.text+0x1500>
3000151c:	eaffff2f 	b	300011e0 <myvsnprintf+0x58>
30001520:	e3899011 	orr	r9, r9, #17	; 0x11
30001524:	e3190008 	tst	r9, #8	; 0x8
30001528:	e3a0c06f 	mov	ip, #111	; 0x6f
3000152c:	1affff99 	bne	30001398 <.text+0x1398>
30001530:	e3190011 	tst	r9, #17	; 0x11
30001534:	1a000088 	bne	3000175c <.text+0x175c>
30001538:	e3190012 	tst	r9, #18	; 0x12
3000153c:	0a000086 	beq	3000175c <.text+0x175c>
30001540:	e59b3000 	ldr	r3, [fp]
30001544:	e1a03803 	mov	r3, r3, lsl #16
30001548:	e28bb004 	add	fp, fp, #4	; 0x4
3000154c:	e1a01823 	mov	r1, r3, lsr #16
30001550:	eaffff98 	b	300013b8 <.text+0x13b8>
30001554:	e3899015 	orr	r9, r9, #21	; 0x15
30001558:	e3a00008 	mov	r0, #8	; 0x8
3000155c:	e3a0c078 	mov	ip, #120	; 0x78
30001560:	eaffff8a 	b	30001390 <.text+0x1390>
30001564:	e59b4000 	ldr	r4, [fp]
30001568:	e59f2298 	ldr	r2, [pc, #664]	; 30001808 <.text+0x1808>
3000156c:	e3540000 	cmp	r4, #0	; 0x0
30001570:	01a04002 	moveq	r4, r2
30001574:	e3500000 	cmp	r0, #0	; 0x0
30001578:	e28bb004 	add	fp, fp, #4	; 0x4
3000157c:	0a00009e 	beq	300017fc <.text+0x17fc>
30001580:	e59dc00c 	ldr	ip, [sp, #12]
30001584:	e060600c 	rsb	r6, r0, ip
30001588:	e3560000 	cmp	r6, #0	; 0x0
3000158c:	da00007f 	ble	30001790 <.text+0x1790>
30001590:	e3190002 	tst	r9, #2	; 0x2
30001594:	1a00007d 	bne	30001790 <.text+0x1790>
30001598:	e2566001 	subs	r6, r6, #1	; 0x1
3000159c:	3a00007b 	bcc	30001790 <.text+0x1790>
300015a0:	e1a03129 	mov	r3, r9, lsr #2
300015a4:	e2033001 	and	r3, r3, #1	; 0x1
300015a8:	e3a01030 	mov	r1, #48	; 0x30
300015ac:	e3a02020 	mov	r2, #32	; 0x20
300015b0:	ea000005 	b	300015cc <.text+0x15cc>
300015b4:	e3550000 	cmp	r5, #0	; 0x0
300015b8:	14ca1001 	strneb	r1, [sl], #1
300015bc:	e2877001 	add	r7, r7, #1	; 0x1
300015c0:	12455001 	subne	r5, r5, #1	; 0x1
300015c4:	e2566001 	subs	r6, r6, #1	; 0x1
300015c8:	3a000070 	bcc	30001790 <.text+0x1790>
300015cc:	e3530000 	cmp	r3, #0	; 0x0
300015d0:	1afffff7 	bne	300015b4 <.text+0x15b4>
300015d4:	e3550000 	cmp	r5, #0	; 0x0
300015d8:	14ca2001 	strneb	r2, [sl], #1
300015dc:	e2877001 	add	r7, r7, #1	; 0x1
300015e0:	12455001 	subne	r5, r5, #1	; 0x1
300015e4:	eafffff6 	b	300015c4 <.text+0x15c4>
300015e8:	e3899011 	orr	r9, r9, #17	; 0x11
300015ec:	eaffff07 	b	30001210 <myvsnprintf+0x88>
300015f0:	e3550000 	cmp	r5, #0	; 0x0
300015f4:	14ca2001 	strneb	r2, [sl], #1
300015f8:	12455001 	subne	r5, r5, #1	; 0x1
300015fc:	e2877001 	add	r7, r7, #1	; 0x1
30001600:	15d82000 	ldrneb	r2, [r8]
30001604:	e3520000 	cmp	r2, #0	; 0x0
30001608:	1afffef4 	bne	300011e0 <myvsnprintf+0x58>
3000160c:	e2470001 	sub	r0, r7, #1	; 0x1
30001610:	eafffefb 	b	30001204 <myvsnprintf+0x7c>
30001614:	e3899001 	orr	r9, r9, #1	; 0x1
30001618:	eafffefc 	b	30001210 <myvsnprintf+0x88>
3000161c:	e35e0000 	cmp	lr, #0	; 0x0
30001620:	059fe1e4 	ldreq	lr, [pc, #484]	; 3000180c <.text+0x180c>
30001624:	eafffef9 	b	30001210 <myvsnprintf+0x88>
30001628:	e3899004 	orr	r9, r9, #4	; 0x4
3000162c:	eafffef7 	b	30001210 <myvsnprintf+0x88>
30001630:	e5f82001 	ldrb	r2, [r8, #1]!
30001634:	e2423030 	sub	r3, r2, #48	; 0x30
30001638:	e3530009 	cmp	r3, #9	; 0x9
3000163c:	e3a00000 	mov	r0, #0	; 0x0
30001640:	8a000007 	bhi	30001664 <.text+0x1664>
30001644:	e1a01002 	mov	r1, r2
30001648:	e0802100 	add	r2, r0, r0, lsl #2
3000164c:	e0812082 	add	r2, r1, r2, lsl #1
30001650:	e5f81001 	ldrb	r1, [r8, #1]!
30001654:	e2413030 	sub	r3, r1, #48	; 0x30
30001658:	e3530009 	cmp	r3, #9	; 0x9
3000165c:	e2420030 	sub	r0, r2, #48	; 0x30
30001660:	9afffff8 	bls	30001648 <.text+0x1648>
30001664:	e2488001 	sub	r8, r8, #1	; 0x1
30001668:	eafffee8 	b	30001210 <myvsnprintf+0x88>
3000166c:	e3899002 	orr	r9, r9, #2	; 0x2
30001670:	eafffee6 	b	30001210 <myvsnprintf+0x88>
30001674:	e59fe194 	ldr	lr, [pc, #404]	; 30001810 <.text+0x1810>
30001678:	eafffee4 	b	30001210 <myvsnprintf+0x88>
3000167c:	e28d4010 	add	r4, sp, #16	; 0x10
30001680:	e89b0006 	ldmia	fp, {r1, r2}
30001684:	e3a0c000 	mov	ip, #0	; 0x0
30001688:	e1a00004 	mov	r0, r4
3000168c:	e3a03010 	mov	r3, #16	; 0x10
30001690:	e3899008 	orr	r9, r9, #8	; 0x8
30001694:	e1a0600c 	mov	r6, ip
30001698:	e58dc000 	str	ip, [sp]
3000169c:	e28bb008 	add	fp, fp, #8	; 0x8
300016a0:	e58d9004 	str	r9, [sp, #4]
300016a4:	ebfffe2f 	bl	30000f68 <format_float>
300016a8:	e1a00004 	mov	r0, r4
300016ac:	ebfffd90 	bl	30000cf4 <str_len>
300016b0:	e1a02000 	mov	r2, r0
300016b4:	ea000004 	b	300016cc <.text+0x16cc>
300016b8:	e3550000 	cmp	r5, #0	; 0x0
300016bc:	1553302c 	ldrneb	r3, [r3, #-44]
300016c0:	14ca3001 	strneb	r3, [sl], #1
300016c4:	e2877001 	add	r7, r7, #1	; 0x1
300016c8:	12455001 	subne	r5, r5, #1	; 0x1
300016cc:	e28dc03c 	add	ip, sp, #60	; 0x3c
300016d0:	e1520006 	cmp	r2, r6
300016d4:	e08c3006 	add	r3, ip, r6
300016d8:	e2866001 	add	r6, r6, #1	; 0x1
300016dc:	cafffff5 	bgt	300016b8 <.text+0x16b8>
300016e0:	eafffebe 	b	300011e0 <myvsnprintf+0x58>
300016e4:	e5db3000 	ldrb	r3, [fp]
300016e8:	e3550000 	cmp	r5, #0	; 0x0
300016ec:	e28bb004 	add	fp, fp, #4	; 0x4
300016f0:	14ca3001 	strneb	r3, [sl], #1
300016f4:	12455001 	subne	r5, r5, #1	; 0x1
300016f8:	eafffeb7 	b	300011dc <myvsnprintf+0x54>
300016fc:	e3a0c058 	mov	ip, #88	; 0x58
30001700:	eaffff22 	b	30001390 <.text+0x1390>
30001704:	e3899011 	orr	r9, r9, #17	; 0x11
30001708:	eaffff1f 	b	3000138c <.text+0x138c>
3000170c:	e3899019 	orr	r9, r9, #25	; 0x19
30001710:	eaffff1d 	b	3000138c <.text+0x138c>
30001714:	e20220ff 	and	r2, r2, #255	; 0xff
30001718:	e2423030 	sub	r3, r2, #48	; 0x30
3000171c:	e3a01000 	mov	r1, #0	; 0x0
30001720:	e3530009 	cmp	r3, #9	; 0x9
30001724:	e58d100c 	str	r1, [sp, #12]
30001728:	8affffcd 	bhi	30001664 <.text+0x1664>
3000172c:	e1a01002 	mov	r1, r2
30001730:	e59d300c 	ldr	r3, [sp, #12]
30001734:	e0832103 	add	r2, r3, r3, lsl #2
30001738:	e0812082 	add	r2, r1, r2, lsl #1
3000173c:	e5f81001 	ldrb	r1, [r8, #1]!
30001740:	e2413030 	sub	r3, r1, #48	; 0x30
30001744:	e2422030 	sub	r2, r2, #48	; 0x30
30001748:	e3530009 	cmp	r3, #9	; 0x9
3000174c:	e58d200c 	str	r2, [sp, #12]
30001750:	9afffff6 	bls	30001730 <.text+0x1730>
30001754:	e2488001 	sub	r8, r8, #1	; 0x1
30001758:	eafffeac 	b	30001210 <myvsnprintf+0x88>
3000175c:	e49b1004 	ldr	r1, [fp], #4
30001760:	eaffff14 	b	300013b8 <.text+0x13b8>
30001764:	e35c0078 	cmp	ip, #120	; 0x78
30001768:	eaffff26 	b	30001408 <.text+0x1408>
3000176c:	e3550000 	cmp	r5, #0	; 0x0
30001770:	14cac001 	strneb	ip, [sl], #1
30001774:	12455001 	subne	r5, r5, #1	; 0x1
30001778:	e2877001 	add	r7, r7, #1	; 0x1
3000177c:	eaffff4c 	b	300014b4 <.text+0x14b4>
30001780:	e5dd3011 	ldrb	r3, [sp, #17]
30001784:	e1530006 	cmp	r3, r6
30001788:	0affff1f 	beq	3000140c <.text+0x140c>
3000178c:	eaffff18 	b	300013f4 <.text+0x13f4>
30001790:	e2400001 	sub	r0, r0, #1	; 0x1
30001794:	ea000007 	b	300017b8 <.text+0x17b8>
30001798:	e4d43001 	ldrb	r3, [r4], #1
3000179c:	e3530000 	cmp	r3, #0	; 0x0
300017a0:	e2400001 	sub	r0, r0, #1	; 0x1
300017a4:	0a000005 	beq	300017c0 <.text+0x17c0>
300017a8:	e3550000 	cmp	r5, #0	; 0x0
300017ac:	14ca3001 	strneb	r3, [sl], #1
300017b0:	e2877001 	add	r7, r7, #1	; 0x1
300017b4:	12455001 	subne	r5, r5, #1	; 0x1
300017b8:	e3700001 	cmn	r0, #1	; 0x1
300017bc:	1afffff5 	bne	30001798 <.text+0x1798>
300017c0:	e3560000 	cmp	r6, #0	; 0x0
300017c4:	dafffe85 	ble	300011e0 <myvsnprintf+0x58>
300017c8:	e3190002 	tst	r9, #2	; 0x2
300017cc:	0afffe83 	beq	300011e0 <myvsnprintf+0x58>
300017d0:	e2566001 	subs	r6, r6, #1	; 0x1
300017d4:	3afffe81 	bcc	300011e0 <myvsnprintf+0x58>
300017d8:	e3a03020 	mov	r3, #32	; 0x20
300017dc:	e3550000 	cmp	r5, #0	; 0x0
300017e0:	e2466001 	sub	r6, r6, #1	; 0x1
300017e4:	12455001 	subne	r5, r5, #1	; 0x1
300017e8:	14ca3001 	strneb	r3, [sl], #1
300017ec:	e3760001 	cmn	r6, #1	; 0x1
300017f0:	e2877001 	add	r7, r7, #1	; 0x1
300017f4:	1afffff8 	bne	300017dc <.text+0x17dc>
300017f8:	eafffe78 	b	300011e0 <myvsnprintf+0x58>
300017fc:	e1a00004 	mov	r0, r4
30001800:	ebfffd3b 	bl	30000cf4 <str_len>
30001804:	eaffff5d 	b	30001580 <.text+0x1580>
30001808:	300034a0 	andcc	r3, r0, r0, lsr #9
3000180c:	300034ac 	andcc	r3, r0, ip, lsr #9
30001810:	300034b0 	strcch	r3, [r0], -r0

30001814 <printf_k>:
30001814:	e92d000f 	stmdb	sp!, {r0, r1, r2, r3}
30001818:	e3a0c000 	mov	ip, #0	; 0x0
3000181c:	e3a010a0 	mov	r1, #160	; 0xa0
30001820:	e92d4030 	stmdb	sp!, {r4, r5, lr}
30001824:	e24dd0a4 	sub	sp, sp, #164	; 0xa4
30001828:	e28d4004 	add	r4, sp, #4	; 0x4
3000182c:	e59d20b0 	ldr	r2, [sp, #176]
30001830:	e28d30b4 	add	r3, sp, #180	; 0xb4
30001834:	e1a00004 	mov	r0, r4
30001838:	e58dc000 	str	ip, [sp]
3000183c:	ebfffe51 	bl	30001188 <myvsnprintf>
30001840:	e1a05000 	mov	r5, r0
30001844:	e1a00004 	mov	r0, r4
30001848:	ebfffd0b 	bl	30000c7c <ioConsolePutString>
3000184c:	e1a00005 	mov	r0, r5
30001850:	e28dd0a4 	add	sp, sp, #164	; 0xa4
30001854:	e8bd4030 	ldmia	sp!, {r4, r5, lr}
30001858:	e28dd010 	add	sp, sp, #16	; 0x10
3000185c:	e1a0f00e 	mov	pc, lr

30001860 <Test_Lcd_Tft_16Bit_480272>:
30001860:	e92d40f0 	stmdb	sp!, {r4, r5, r6, r7, lr}
30001864:	e3a05f77 	mov	r5, #476	; 0x1dc
30001868:	e2855003 	add	r5, r5, #3	; 0x3
3000186c:	e3a068ff 	mov	r6, #16711680	; 0xff0000
30001870:	e3a04f43 	mov	r4, #268	; 0x10c
30001874:	e2844003 	add	r4, r4, #3	; 0x3
30001878:	e3a070ff 	mov	r7, #255	; 0xff
3000187c:	e24dd004 	sub	sp, sp, #4	; 0x4
30001880:	ebfffa6a 	bl	30000230 <Lcd_Port_Init>
30001884:	ebfffa7e 	bl	30000284 <Tft_Lcd_Init>
30001888:	e3a01001 	mov	r1, #1	; 0x1
3000188c:	e3a00000 	mov	r0, #0	; 0x0
30001890:	ebfffad7 	bl	300003f4 <Lcd_PowerEnable>
30001894:	e3a00001 	mov	r0, #1	; 0x1
30001898:	ebfffae7 	bl	3000043c <Lcd_EnvidOnOff>
3000189c:	e3a00000 	mov	r0, #0	; 0x0
300018a0:	ebfffbe9 	bl	3000084c <ClearScr>
300018a4:	ebfffc6a 	bl	30000a54 <VideoInit>
300018a8:	e59f0174 	ldr	r0, [pc, #372]	; 30001a24 <.text+0x1a24>
300018ac:	eb00017f 	bl	30001eb0 <puts>
300018b0:	e59f0170 	ldr	r0, [pc, #368]	; 30001a28 <.text+0x1a28>
300018b4:	eb00017d 	bl	30001eb0 <puts>
300018b8:	e59f016c 	ldr	r0, [pc, #364]	; 30001a2c <.text+0x1a2c>
300018bc:	ebffffd4 	bl	30001814 <printf_k>
300018c0:	ebfffa43 	bl	300001d4 <getc>
300018c4:	e3a00000 	mov	r0, #0	; 0x0
300018c8:	e1a01000 	mov	r1, r0
300018cc:	e1a03000 	mov	r3, r0
300018d0:	e1a02005 	mov	r2, r5
300018d4:	e58d6000 	str	r6, [sp]
300018d8:	ebfffb1b 	bl	3000054c <DrawLine>
300018dc:	e3a00000 	mov	r0, #0	; 0x0
300018e0:	e3a0ccff 	mov	ip, #65280	; 0xff00
300018e4:	e1a01000 	mov	r1, r0
300018e8:	e1a02000 	mov	r2, r0
300018ec:	e1a03004 	mov	r3, r4
300018f0:	e58dc000 	str	ip, [sp]
300018f4:	ebfffb14 	bl	3000054c <DrawLine>
300018f8:	e1a00005 	mov	r0, r5
300018fc:	e1a02005 	mov	r2, r5
30001900:	e1a03004 	mov	r3, r4
30001904:	e3a01000 	mov	r1, #0	; 0x0
30001908:	e58d7000 	str	r7, [sp]
3000190c:	ebfffb0e 	bl	3000054c <DrawLine>
30001910:	e1a01004 	mov	r1, r4
30001914:	e1a02005 	mov	r2, r5
30001918:	e1a03004 	mov	r3, r4
3000191c:	e3e0c4ff 	mvn	ip, #-16777216	; 0xff000000
30001920:	e3a00000 	mov	r0, #0	; 0x0
30001924:	e58dc000 	str	ip, [sp]
30001928:	ebfffb07 	bl	3000054c <DrawLine>
3000192c:	e3a00000 	mov	r0, #0	; 0x0
30001930:	e286ccff 	add	ip, r6, #65280	; 0xff00
30001934:	e1a01000 	mov	r1, r0
30001938:	e1a02005 	mov	r2, r5
3000193c:	e1a03004 	mov	r3, r4
30001940:	e58dc000 	str	ip, [sp]
30001944:	ebfffb00 	bl	3000054c <DrawLine>
30001948:	e3a01000 	mov	r1, #0	; 0x0
3000194c:	e3a0c502 	mov	ip, #8388608	; 0x800000
30001950:	e08cc007 	add	ip, ip, r7
30001954:	e1a02001 	mov	r2, r1
30001958:	e1a00005 	mov	r0, r5
3000195c:	e1a03004 	mov	r3, r4
30001960:	e58dc000 	str	ip, [sp]
30001964:	ebfffaf8 	bl	3000054c <DrawLine>
30001968:	e3a0c8e6 	mov	ip, #15073280	; 0xe60000
3000196c:	e3a000f0 	mov	r0, #240	; 0xf0
30001970:	e28ccb3a 	add	ip, ip, #59392	; 0xe800
30001974:	e28cc0fa 	add	ip, ip, #250	; 0xfa
30001978:	e1a03004 	mov	r3, r4
3000197c:	e1a02000 	mov	r2, r0
30001980:	e3a01000 	mov	r1, #0	; 0x0
30001984:	e58dc000 	str	ip, [sp]
30001988:	ebfffaef 	bl	3000054c <DrawLine>
3000198c:	e3a0c8cd 	mov	ip, #13434880	; 0xcd0000
30001990:	e3a01088 	mov	r1, #136	; 0x88
30001994:	e28ccc7f 	add	ip, ip, #32512	; 0x7f00
30001998:	e28cc032 	add	ip, ip, #50	; 0x32
3000199c:	e1a02005 	mov	r2, r5
300019a0:	e1a03001 	mov	r3, r1
300019a4:	e3a00000 	mov	r0, #0	; 0x0
300019a8:	e58dc000 	str	ip, [sp]
300019ac:	ebfffae6 	bl	3000054c <DrawLine>
300019b0:	e59f0078 	ldr	r0, [pc, #120]	; 30001a30 <.text+0x1a30>
300019b4:	eb00013d 	bl	30001eb0 <puts>
300019b8:	e59f0074 	ldr	r0, [pc, #116]	; 30001a34 <.text+0x1a34>
300019bc:	ebffff94 	bl	30001814 <printf_k>
300019c0:	ebfffa03 	bl	300001d4 <getc>
300019c4:	ebfffb78 	bl	300007ac <Mire>
300019c8:	e59f0068 	ldr	r0, [pc, #104]	; 30001a38 <.text+0x1a38>
300019cc:	eb000137 	bl	30001eb0 <puts>
300019d0:	e59f0064 	ldr	r0, [pc, #100]	; 30001a3c <.text+0x1a3c>
300019d4:	ebffff8e 	bl	30001814 <printf_k>
300019d8:	ebfff9fd 	bl	300001d4 <getc>
300019dc:	e1a00006 	mov	r0, r6
300019e0:	ebfffb99 	bl	3000084c <ClearScr>
300019e4:	e59f0054 	ldr	r0, [pc, #84]	; 30001a40 <.text+0x1a40>
300019e8:	eb000130 	bl	30001eb0 <puts>
300019ec:	e59f0050 	ldr	r0, [pc, #80]	; 30001a44 <.text+0x1a44>
300019f0:	ebffff87 	bl	30001814 <printf_k>
300019f4:	ebfff9f6 	bl	300001d4 <getc>
300019f8:	e1a00007 	mov	r0, r7
300019fc:	ebfffaa3 	bl	30000490 <ClearScrWithTmpPlt>
30001a00:	e59f0040 	ldr	r0, [pc, #64]	; 30001a48 <.text+0x1a48>
30001a04:	eb000129 	bl	30001eb0 <puts>
30001a08:	e59f003c 	ldr	r0, [pc, #60]	; 30001a4c <.text+0x1a4c>
30001a0c:	ebffff80 	bl	30001814 <printf_k>
30001a10:	ebfff9ef 	bl	300001d4 <getc>
30001a14:	e3a00000 	mov	r0, #0	; 0x0
30001a18:	e28dd004 	add	sp, sp, #4	; 0x4
30001a1c:	e8bd40f0 	ldmia	sp!, {r4, r5, r6, r7, lr}
30001a20:	eafffa85 	b	3000043c <Lcd_EnvidOnOff>
30001a24:	300034b4 	strcch	r3, [r0], -r4
30001a28:	300034d4 	ldrccd	r3, [r0], -r4
30001a2c:	300034f4 	strccd	r3, [r0], -r4
30001a30:	30003514 	andcc	r3, r0, r4, lsl r5
30001a34:	30003538 	andcc	r3, r0, r8, lsr r5
30001a38:	3000355c 	andcc	r3, r0, ip, asr r5
30001a3c:	30003590 	mulcc	r0, r0, r5
30001a40:	300035c8 	andcc	r3, r0, r8, asr #11
30001a44:	30003604 	andcc	r3, r0, r4, lsl #12
30001a48:	30003640 	andcc	r3, r0, r0, asr #12
30001a4c:	30003664 	andcc	r3, r0, r4, ror #12

30001a50 <main>:
30001a50:	e92d4010 	stmdb	sp!, {r4, lr}
30001a54:	e24dd064 	sub	sp, sp, #100	; 0x64
30001a58:	ebfff9c0 	bl	30000160 <uart0_init>
30001a5c:	ebfff9bf 	bl	30000160 <uart0_init>
30001a60:	ebfff9f2 	bl	30000230 <Lcd_Port_Init>
30001a64:	ebfffa06 	bl	30000284 <Tft_Lcd_Init>
30001a68:	e3a01001 	mov	r1, #1	; 0x1
30001a6c:	e3a00000 	mov	r0, #0	; 0x0
30001a70:	ebfffa5f 	bl	300003f4 <Lcd_PowerEnable>
30001a74:	e3a00001 	mov	r0, #1	; 0x1
30001a78:	ebfffa6f 	bl	3000043c <Lcd_EnvidOnOff>
30001a7c:	e3a00032 	mov	r0, #50	; 0x32
30001a80:	ebfffb71 	bl	3000084c <ClearScr>
30001a84:	ebfffbf2 	bl	30000a54 <VideoInit>
30001a88:	e59f0034 	ldr	r0, [pc, #52]	; 30001ac4 <.text+0x1ac4>
30001a8c:	ebffff60 	bl	30001814 <printf_k>
30001a90:	e1a0400d 	mov	r4, sp
30001a94:	e3a01000 	mov	r1, #0	; 0x0
30001a98:	e3a02064 	mov	r2, #100	; 0x64
30001a9c:	e1a00004 	mov	r0, r4
30001aa0:	eb00021a 	bl	30002310 <memset>
30001aa4:	e1a00004 	mov	r0, r4
30001aa8:	eb0000f4 	bl	30001e80 <gets>
30001aac:	e1a00004 	mov	r0, r4
30001ab0:	eb0000fe 	bl	30001eb0 <puts>
30001ab4:	e1a01004 	mov	r1, r4
30001ab8:	e59f0008 	ldr	r0, [pc, #8]	; 30001ac8 <.text+0x1ac8>
30001abc:	ebffff54 	bl	30001814 <printf_k>
30001ac0:	eafffff3 	b	30001a94 <main+0x44>
30001ac4:	30003688 	andcc	r3, r0, r8, lsl #13
30001ac8:	30003698 	mulcc	r0, r8, r6
30001acc:	00000000 	andeq	r0, r0, r0

30001ad0 <__udivsi3>:
30001ad0:	e2512001 	subs	r2, r1, #1	; 0x1
30001ad4:	01a0f00e 	moveq	pc, lr
30001ad8:	3a0000e5 	bcc	30001e74 <Ldiv0>
30001adc:	e1500001 	cmp	r0, r1
30001ae0:	9a000022 	bls	30001b70 <__udivsi3+0xa0>
30001ae4:	e1110002 	tst	r1, r2
30001ae8:	0a000023 	beq	30001b7c <__udivsi3+0xac>
30001aec:	e311020e 	tst	r1, #-536870912	; 0xe0000000
30001af0:	01a01181 	moveq	r1, r1, lsl #3
30001af4:	03a03008 	moveq	r3, #8	; 0x8
30001af8:	13a03001 	movne	r3, #1	; 0x1
30001afc:	e3510201 	cmp	r1, #268435456	; 0x10000000
30001b00:	31510000 	cmpcc	r1, r0
30001b04:	31a01201 	movcc	r1, r1, lsl #4
30001b08:	31a03203 	movcc	r3, r3, lsl #4
30001b0c:	3afffffa 	bcc	30001afc <__udivsi3+0x2c>
30001b10:	e3510102 	cmp	r1, #-2147483648	; 0x80000000
30001b14:	31510000 	cmpcc	r1, r0
30001b18:	31a01081 	movcc	r1, r1, lsl #1
30001b1c:	31a03083 	movcc	r3, r3, lsl #1
30001b20:	3afffffa 	bcc	30001b10 <__udivsi3+0x40>
30001b24:	e3a02000 	mov	r2, #0	; 0x0
30001b28:	e1500001 	cmp	r0, r1
30001b2c:	20400001 	subcs	r0, r0, r1
30001b30:	21822003 	orrcs	r2, r2, r3
30001b34:	e15000a1 	cmp	r0, r1, lsr #1
30001b38:	204000a1 	subcs	r0, r0, r1, lsr #1
30001b3c:	218220a3 	orrcs	r2, r2, r3, lsr #1
30001b40:	e1500121 	cmp	r0, r1, lsr #2
30001b44:	20400121 	subcs	r0, r0, r1, lsr #2
30001b48:	21822123 	orrcs	r2, r2, r3, lsr #2
30001b4c:	e15001a1 	cmp	r0, r1, lsr #3
30001b50:	204001a1 	subcs	r0, r0, r1, lsr #3
30001b54:	218221a3 	orrcs	r2, r2, r3, lsr #3
30001b58:	e3500000 	cmp	r0, #0	; 0x0
30001b5c:	11b03223 	movnes	r3, r3, lsr #4
30001b60:	11a01221 	movne	r1, r1, lsr #4
30001b64:	1affffef 	bne	30001b28 <__udivsi3+0x58>
30001b68:	e1a00002 	mov	r0, r2
30001b6c:	e1a0f00e 	mov	pc, lr
30001b70:	03a00001 	moveq	r0, #1	; 0x1
30001b74:	13a00000 	movne	r0, #0	; 0x0
30001b78:	e1a0f00e 	mov	pc, lr
30001b7c:	e3510801 	cmp	r1, #65536	; 0x10000
30001b80:	21a01821 	movcs	r1, r1, lsr #16
30001b84:	23a02010 	movcs	r2, #16	; 0x10
30001b88:	33a02000 	movcc	r2, #0	; 0x0
30001b8c:	e3510c01 	cmp	r1, #256	; 0x100
30001b90:	21a01421 	movcs	r1, r1, lsr #8
30001b94:	22822008 	addcs	r2, r2, #8	; 0x8
30001b98:	e3510010 	cmp	r1, #16	; 0x10
30001b9c:	21a01221 	movcs	r1, r1, lsr #4
30001ba0:	22822004 	addcs	r2, r2, #4	; 0x4
30001ba4:	e3510004 	cmp	r1, #4	; 0x4
30001ba8:	82822003 	addhi	r2, r2, #3	; 0x3
30001bac:	908220a1 	addls	r2, r2, r1, lsr #1
30001bb0:	e1a00230 	mov	r0, r0, lsr r2
30001bb4:	e1a0f00e 	mov	pc, lr
30001bb8:	90909090 	umulllss	r9, r0, r0, r0
30001bbc:	90909090 	umulllss	r9, r0, r0, r0

30001bc0 <__umodsi3>:
30001bc0:	e2512001 	subs	r2, r1, #1	; 0x1
30001bc4:	3a0000aa 	bcc	30001e74 <Ldiv0>
30001bc8:	11500001 	cmpne	r0, r1
30001bcc:	03a00000 	moveq	r0, #0	; 0x0
30001bd0:	81110002 	tsthi	r1, r2
30001bd4:	00000002 	andeq	r0, r0, r2
30001bd8:	91a0f00e 	movls	pc, lr
30001bdc:	e3a02000 	mov	r2, #0	; 0x0
30001be0:	e3510201 	cmp	r1, #268435456	; 0x10000000
30001be4:	31510000 	cmpcc	r1, r0
30001be8:	31a01201 	movcc	r1, r1, lsl #4
30001bec:	32822004 	addcc	r2, r2, #4	; 0x4
30001bf0:	3afffffa 	bcc	30001be0 <__umodsi3+0x20>
30001bf4:	e3510102 	cmp	r1, #-2147483648	; 0x80000000
30001bf8:	31510000 	cmpcc	r1, r0
30001bfc:	31a01081 	movcc	r1, r1, lsl #1
30001c00:	32822001 	addcc	r2, r2, #1	; 0x1
30001c04:	3afffffa 	bcc	30001bf4 <__umodsi3+0x34>
30001c08:	e2522003 	subs	r2, r2, #3	; 0x3
30001c0c:	ba00000e 	blt	30001c4c <__umodsi3+0x8c>
30001c10:	e1500001 	cmp	r0, r1
30001c14:	20400001 	subcs	r0, r0, r1
30001c18:	e15000a1 	cmp	r0, r1, lsr #1
30001c1c:	204000a1 	subcs	r0, r0, r1, lsr #1
30001c20:	e1500121 	cmp	r0, r1, lsr #2
30001c24:	20400121 	subcs	r0, r0, r1, lsr #2
30001c28:	e15001a1 	cmp	r0, r1, lsr #3
30001c2c:	204001a1 	subcs	r0, r0, r1, lsr #3
30001c30:	e3500001 	cmp	r0, #1	; 0x1
30001c34:	e1a01221 	mov	r1, r1, lsr #4
30001c38:	a2522004 	subges	r2, r2, #4	; 0x4
30001c3c:	aafffff3 	bge	30001c10 <__umodsi3+0x50>
30001c40:	e3120003 	tst	r2, #3	; 0x3
30001c44:	13300000 	teqne	r0, #0	; 0x0
30001c48:	0a00000a 	beq	30001c78 <__umodsi3+0xb8>
30001c4c:	e3720002 	cmn	r2, #2	; 0x2
30001c50:	ba000006 	blt	30001c70 <__umodsi3+0xb0>
30001c54:	0a000002 	beq	30001c64 <__umodsi3+0xa4>
30001c58:	e1500001 	cmp	r0, r1
30001c5c:	20400001 	subcs	r0, r0, r1
30001c60:	e1a010a1 	mov	r1, r1, lsr #1
30001c64:	e1500001 	cmp	r0, r1
30001c68:	20400001 	subcs	r0, r0, r1
30001c6c:	e1a010a1 	mov	r1, r1, lsr #1
30001c70:	e1500001 	cmp	r0, r1
30001c74:	20400001 	subcs	r0, r0, r1
30001c78:	e1a0f00e 	mov	pc, lr
30001c7c:	90909090 	umulllss	r9, r0, r0, r0

30001c80 <__divsi3>:
30001c80:	e3510000 	cmp	r1, #0	; 0x0
30001c84:	e020c001 	eor	ip, r0, r1
30001c88:	0a000079 	beq	30001e74 <Ldiv0>
30001c8c:	42611000 	rsbmi	r1, r1, #0	; 0x0
30001c90:	e2512001 	subs	r2, r1, #1	; 0x1
30001c94:	0a000027 	beq	30001d38 <__divsi3+0xb8>
30001c98:	e1b03000 	movs	r3, r0
30001c9c:	42603000 	rsbmi	r3, r0, #0	; 0x0
30001ca0:	e1530001 	cmp	r3, r1
30001ca4:	9a000026 	bls	30001d44 <__divsi3+0xc4>
30001ca8:	e1110002 	tst	r1, r2
30001cac:	0a000028 	beq	30001d54 <__divsi3+0xd4>
30001cb0:	e311020e 	tst	r1, #-536870912	; 0xe0000000
30001cb4:	01a01181 	moveq	r1, r1, lsl #3
30001cb8:	03a02008 	moveq	r2, #8	; 0x8
30001cbc:	13a02001 	movne	r2, #1	; 0x1
30001cc0:	e3510201 	cmp	r1, #268435456	; 0x10000000
30001cc4:	31510003 	cmpcc	r1, r3
30001cc8:	31a01201 	movcc	r1, r1, lsl #4
30001ccc:	31a02202 	movcc	r2, r2, lsl #4
30001cd0:	3afffffa 	bcc	30001cc0 <__divsi3+0x40>
30001cd4:	e3510102 	cmp	r1, #-2147483648	; 0x80000000
30001cd8:	31510003 	cmpcc	r1, r3
30001cdc:	31a01081 	movcc	r1, r1, lsl #1
30001ce0:	31a02082 	movcc	r2, r2, lsl #1
30001ce4:	3afffffa 	bcc	30001cd4 <__divsi3+0x54>
30001ce8:	e3a00000 	mov	r0, #0	; 0x0
30001cec:	e1530001 	cmp	r3, r1
30001cf0:	20433001 	subcs	r3, r3, r1
30001cf4:	21800002 	orrcs	r0, r0, r2
30001cf8:	e15300a1 	cmp	r3, r1, lsr #1
30001cfc:	204330a1 	subcs	r3, r3, r1, lsr #1
30001d00:	218000a2 	orrcs	r0, r0, r2, lsr #1
30001d04:	e1530121 	cmp	r3, r1, lsr #2
30001d08:	20433121 	subcs	r3, r3, r1, lsr #2
30001d0c:	21800122 	orrcs	r0, r0, r2, lsr #2
30001d10:	e15301a1 	cmp	r3, r1, lsr #3
30001d14:	204331a1 	subcs	r3, r3, r1, lsr #3
30001d18:	218001a2 	orrcs	r0, r0, r2, lsr #3
30001d1c:	e3530000 	cmp	r3, #0	; 0x0
30001d20:	11b02222 	movnes	r2, r2, lsr #4
30001d24:	11a01221 	movne	r1, r1, lsr #4
30001d28:	1affffef 	bne	30001cec <__divsi3+0x6c>
30001d2c:	e35c0000 	cmp	ip, #0	; 0x0
30001d30:	42600000 	rsbmi	r0, r0, #0	; 0x0
30001d34:	e1a0f00e 	mov	pc, lr
30001d38:	e13c0000 	teq	ip, r0
30001d3c:	42600000 	rsbmi	r0, r0, #0	; 0x0
30001d40:	e1a0f00e 	mov	pc, lr
30001d44:	33a00000 	movcc	r0, #0	; 0x0
30001d48:	01a00fcc 	moveq	r0, ip, asr #31
30001d4c:	03800001 	orreq	r0, r0, #1	; 0x1
30001d50:	e1a0f00e 	mov	pc, lr
30001d54:	e3510801 	cmp	r1, #65536	; 0x10000
30001d58:	21a01821 	movcs	r1, r1, lsr #16
30001d5c:	23a02010 	movcs	r2, #16	; 0x10
30001d60:	33a02000 	movcc	r2, #0	; 0x0
30001d64:	e3510c01 	cmp	r1, #256	; 0x100
30001d68:	21a01421 	movcs	r1, r1, lsr #8
30001d6c:	22822008 	addcs	r2, r2, #8	; 0x8
30001d70:	e3510010 	cmp	r1, #16	; 0x10
30001d74:	21a01221 	movcs	r1, r1, lsr #4
30001d78:	22822004 	addcs	r2, r2, #4	; 0x4
30001d7c:	e3510004 	cmp	r1, #4	; 0x4
30001d80:	82822003 	addhi	r2, r2, #3	; 0x3
30001d84:	908220a1 	addls	r2, r2, r1, lsr #1
30001d88:	e35c0000 	cmp	ip, #0	; 0x0
30001d8c:	e1a00233 	mov	r0, r3, lsr r2
30001d90:	42600000 	rsbmi	r0, r0, #0	; 0x0
30001d94:	e1a0f00e 	mov	pc, lr
30001d98:	90909090 	umulllss	r9, r0, r0, r0
30001d9c:	90909090 	umulllss	r9, r0, r0, r0

30001da0 <__modsi3>:
30001da0:	e3510000 	cmp	r1, #0	; 0x0
30001da4:	0a000032 	beq	30001e74 <Ldiv0>
30001da8:	42611000 	rsbmi	r1, r1, #0	; 0x0
30001dac:	e1b0c000 	movs	ip, r0
30001db0:	42600000 	rsbmi	r0, r0, #0	; 0x0
30001db4:	e2512001 	subs	r2, r1, #1	; 0x1
30001db8:	11500001 	cmpne	r0, r1
30001dbc:	03a00000 	moveq	r0, #0	; 0x0
30001dc0:	81110002 	tsthi	r1, r2
30001dc4:	00000002 	andeq	r0, r0, r2
30001dc8:	9a000026 	bls	30001e68 <__modsi3+0xc8>
30001dcc:	e3a02000 	mov	r2, #0	; 0x0
30001dd0:	e3510201 	cmp	r1, #268435456	; 0x10000000
30001dd4:	31510000 	cmpcc	r1, r0
30001dd8:	31a01201 	movcc	r1, r1, lsl #4
30001ddc:	32822004 	addcc	r2, r2, #4	; 0x4
30001de0:	3afffffa 	bcc	30001dd0 <__modsi3+0x30>
30001de4:	e3510102 	cmp	r1, #-2147483648	; 0x80000000
30001de8:	31510000 	cmpcc	r1, r0
30001dec:	31a01081 	movcc	r1, r1, lsl #1
30001df0:	32822001 	addcc	r2, r2, #1	; 0x1
30001df4:	3afffffa 	bcc	30001de4 <__modsi3+0x44>
30001df8:	e2522003 	subs	r2, r2, #3	; 0x3
30001dfc:	ba00000e 	blt	30001e3c <__modsi3+0x9c>
30001e00:	e1500001 	cmp	r0, r1
30001e04:	20400001 	subcs	r0, r0, r1
30001e08:	e15000a1 	cmp	r0, r1, lsr #1
30001e0c:	204000a1 	subcs	r0, r0, r1, lsr #1
30001e10:	e1500121 	cmp	r0, r1, lsr #2
30001e14:	20400121 	subcs	r0, r0, r1, lsr #2
30001e18:	e15001a1 	cmp	r0, r1, lsr #3
30001e1c:	204001a1 	subcs	r0, r0, r1, lsr #3
30001e20:	e3500001 	cmp	r0, #1	; 0x1
30001e24:	e1a01221 	mov	r1, r1, lsr #4
30001e28:	a2522004 	subges	r2, r2, #4	; 0x4
30001e2c:	aafffff3 	bge	30001e00 <__modsi3+0x60>
30001e30:	e3120003 	tst	r2, #3	; 0x3
30001e34:	13300000 	teqne	r0, #0	; 0x0
30001e38:	0a00000a 	beq	30001e68 <__modsi3+0xc8>
30001e3c:	e3720002 	cmn	r2, #2	; 0x2
30001e40:	ba000006 	blt	30001e60 <__modsi3+0xc0>
30001e44:	0a000002 	beq	30001e54 <__modsi3+0xb4>
30001e48:	e1500001 	cmp	r0, r1
30001e4c:	20400001 	subcs	r0, r0, r1
30001e50:	e1a010a1 	mov	r1, r1, lsr #1
30001e54:	e1500001 	cmp	r0, r1
30001e58:	20400001 	subcs	r0, r0, r1
30001e5c:	e1a010a1 	mov	r1, r1, lsr #1
30001e60:	e1500001 	cmp	r0, r1
30001e64:	20400001 	subcs	r0, r0, r1
30001e68:	e35c0000 	cmp	ip, #0	; 0x0
30001e6c:	42600000 	rsbmi	r0, r0, #0	; 0x0
30001e70:	e1a0f00e 	mov	pc, lr

30001e74 <Ldiv0>:
30001e74:	e52de004 	str	lr, [sp, #-4]!
30001e78:	e3a00000 	mov	r0, #0	; 0x0
30001e7c:	e49df004 	ldr	pc, [sp], #4

30001e80 <gets>:
30001e80:	e92d4030 	stmdb	sp!, {r4, r5, lr}
30001e84:	e1a05000 	mov	r5, r0
30001e88:	e3a04000 	mov	r4, #0	; 0x0
30001e8c:	ea000001 	b	30001e98 <gets+0x18>
30001e90:	e4c50001 	strb	r0, [r5], #1
30001e94:	e2844001 	add	r4, r4, #1	; 0x1
30001e98:	ebfff8cd 	bl	300001d4 <getc>
30001e9c:	e20000ff 	and	r0, r0, #255	; 0xff
30001ea0:	e350000d 	cmp	r0, #13	; 0xd
30001ea4:	1afffff9 	bne	30001e90 <gets+0x10>
30001ea8:	e1a00004 	mov	r0, r4
30001eac:	e8bd8030 	ldmia	sp!, {r4, r5, pc}

30001eb0 <puts>:
30001eb0:	e92d4030 	stmdb	sp!, {r4, r5, lr}
30001eb4:	e1a04000 	mov	r4, r0
30001eb8:	e3a05000 	mov	r5, #0	; 0x0
30001ebc:	e5d00000 	ldrb	r0, [r0]
30001ec0:	e3500000 	cmp	r0, #0	; 0x0
30001ec4:	0a000004 	beq	30001edc <puts+0x2c>
30001ec8:	ebfff8ba 	bl	300001b8 <putc>
30001ecc:	e5f40001 	ldrb	r0, [r4, #1]!
30001ed0:	e2855001 	add	r5, r5, #1	; 0x1
30001ed4:	e3500000 	cmp	r0, #0	; 0x0
30001ed8:	1afffffa 	bne	30001ec8 <puts+0x18>
30001edc:	e3a0000a 	mov	r0, #10	; 0xa
30001ee0:	ebfff8b4 	bl	300001b8 <putc>
30001ee4:	e3a0000d 	mov	r0, #13	; 0xd
30001ee8:	ebfff8b2 	bl	300001b8 <putc>
30001eec:	e2850002 	add	r0, r5, #2	; 0x2
30001ef0:	e8bd8030 	ldmia	sp!, {r4, r5, pc}

30001ef4 <putchar>:
30001ef4:	e92d4010 	stmdb	sp!, {r4, lr}
30001ef8:	e1a04000 	mov	r4, r0
30001efc:	e20000ff 	and	r0, r0, #255	; 0xff
30001f00:	ebfff8ac 	bl	300001b8 <putc>
30001f04:	e1a00004 	mov	r0, r4
30001f08:	e8bd8010 	ldmia	sp!, {r4, pc}

30001f0c <strnicmp>:
30001f0c:	e92d41f0 	stmdb	sp!, {r4, r5, r6, r7, r8, lr}
30001f10:	e3520000 	cmp	r2, #0	; 0x0
30001f14:	e3a0e000 	mov	lr, #0	; 0x0
30001f18:	e1a07000 	mov	r7, r0
30001f1c:	e1a06001 	mov	r6, r1
30001f20:	e1a0c00e 	mov	ip, lr
30001f24:	0a000018 	beq	30001f8c <strnicmp+0x80>
30001f28:	e4d7e001 	ldrb	lr, [r7], #1
30001f2c:	e35e0000 	cmp	lr, #0	; 0x0
30001f30:	e59f805c 	ldr	r8, [pc, #92]	; 30001f94 <.text+0x1f94>
30001f34:	e4d6c001 	ldrb	ip, [r6], #1
30001f38:	0a000013 	beq	30001f8c <strnicmp+0x80>
30001f3c:	e35c0000 	cmp	ip, #0	; 0x0
30001f40:	e1a0100e 	mov	r1, lr
30001f44:	e1a0400c 	mov	r4, ip
30001f48:	0a00000f 	beq	30001f8c <strnicmp+0x80>
30001f4c:	e15e000c 	cmp	lr, ip
30001f50:	0a00000b 	beq	30001f84 <strnicmp+0x78>
30001f54:	e7d8300e 	ldrb	r3, [r8, lr]
30001f58:	e3130001 	tst	r3, #1	; 0x1
30001f5c:	e7d8300c 	ldrb	r3, [r8, ip]
30001f60:	e28e0020 	add	r0, lr, #32	; 0x20
30001f64:	e28c5020 	add	r5, ip, #32	; 0x20
30001f68:	120010ff 	andne	r1, r0, #255	; 0xff
30001f6c:	e3130001 	tst	r3, #1	; 0x1
30001f70:	120540ff 	andne	r4, r5, #255	; 0xff
30001f74:	e201e0ff 	and	lr, r1, #255	; 0xff
30001f78:	e204c0ff 	and	ip, r4, #255	; 0xff
30001f7c:	e15e000c 	cmp	lr, ip
30001f80:	1a000001 	bne	30001f8c <strnicmp+0x80>
30001f84:	e2522001 	subs	r2, r2, #1	; 0x1
30001f88:	1affffe6 	bne	30001f28 <strnicmp+0x1c>
30001f8c:	e06c000e 	rsb	r0, ip, lr
30001f90:	e8bd81f0 	ldmia	sp!, {r4, r5, r6, r7, r8, pc}
30001f94:	300046a0 	andcc	r4, r0, r0, lsr #13

30001f98 <strcpy>:
30001f98:	e1a02000 	mov	r2, r0
30001f9c:	e4d13001 	ldrb	r3, [r1], #1
30001fa0:	e3530000 	cmp	r3, #0	; 0x0
30001fa4:	e4c03001 	strb	r3, [r0], #1
30001fa8:	1afffffb 	bne	30001f9c <strcpy+0x4>
30001fac:	e1a00002 	mov	r0, r2
30001fb0:	e1a0f00e 	mov	pc, lr

30001fb4 <strncpy>:
30001fb4:	e1a0c000 	mov	ip, r0
30001fb8:	e2522001 	subs	r2, r2, #1	; 0x1
30001fbc:	3a000003 	bcc	30001fd0 <strncpy+0x1c>
30001fc0:	e4d13001 	ldrb	r3, [r1], #1
30001fc4:	e3530000 	cmp	r3, #0	; 0x0
30001fc8:	e4c03001 	strb	r3, [r0], #1
30001fcc:	1afffff9 	bne	30001fb8 <strncpy+0x4>
30001fd0:	e1a0000c 	mov	r0, ip
30001fd4:	e1a0f00e 	mov	pc, lr

30001fd8 <strcat>:
30001fd8:	e5d03000 	ldrb	r3, [r0]
30001fdc:	e1a02000 	mov	r2, r0
30001fe0:	ea000000 	b	30001fe8 <strcat+0x10>
30001fe4:	e5f03001 	ldrb	r3, [r0, #1]!
30001fe8:	e3530000 	cmp	r3, #0	; 0x0
30001fec:	1afffffc 	bne	30001fe4 <strcat+0xc>
30001ff0:	e4d13001 	ldrb	r3, [r1], #1
30001ff4:	e3530000 	cmp	r3, #0	; 0x0
30001ff8:	e4c03001 	strb	r3, [r0], #1
30001ffc:	1afffffb 	bne	30001ff0 <strcat+0x18>
30002000:	e1a00002 	mov	r0, r2
30002004:	e1a0f00e 	mov	pc, lr

30002008 <strncat>:
30002008:	e3520000 	cmp	r2, #0	; 0x0
3000200c:	e1a0c000 	mov	ip, r0
30002010:	0a00000b 	beq	30002044 <strncat+0x3c>
30002014:	e5d03000 	ldrb	r3, [r0]
30002018:	ea000000 	b	30002020 <strncat+0x18>
3000201c:	e5f03001 	ldrb	r3, [r0, #1]!
30002020:	e3530000 	cmp	r3, #0	; 0x0
30002024:	1afffffc 	bne	3000201c <strncat+0x14>
30002028:	e4d13001 	ldrb	r3, [r1], #1
3000202c:	e3530000 	cmp	r3, #0	; 0x0
30002030:	e4c03001 	strb	r3, [r0], #1
30002034:	0a000002 	beq	30002044 <strncat+0x3c>
30002038:	e2522001 	subs	r2, r2, #1	; 0x1
3000203c:	1afffff9 	bne	30002028 <strncat+0x20>
30002040:	e5c02000 	strb	r2, [r0]
30002044:	e1a0000c 	mov	r0, ip
30002048:	e1a0f00e 	mov	pc, lr

3000204c <strcmp>:
3000204c:	e5d02000 	ldrb	r2, [r0]
30002050:	e4d13001 	ldrb	r3, [r1], #1
30002054:	e0633002 	rsb	r3, r3, r2
30002058:	e1b0cc03 	movs	ip, r3, lsl #24
3000205c:	e2800001 	add	r0, r0, #1	; 0x1
30002060:	e20330ff 	and	r3, r3, #255	; 0xff
30002064:	1a000001 	bne	30002070 <strcmp+0x24>
30002068:	e3520000 	cmp	r2, #0	; 0x0
3000206c:	1afffff6 	bne	3000204c <strcmp>
30002070:	e1a00c03 	mov	r0, r3, lsl #24
30002074:	e1a00c40 	mov	r0, r0, asr #24
30002078:	e1a0f00e 	mov	pc, lr

3000207c <strncmp>:
3000207c:	e3520000 	cmp	r2, #0	; 0x0
30002080:	e52de004 	str	lr, [sp, #-4]!
30002084:	e3a03000 	mov	r3, #0	; 0x0
30002088:	0a00000a 	beq	300020b8 <strncmp+0x3c>
3000208c:	e5d0c000 	ldrb	ip, [r0]
30002090:	e4d13001 	ldrb	r3, [r1], #1
30002094:	e063300c 	rsb	r3, r3, ip
30002098:	e1b0ec03 	movs	lr, r3, lsl #24
3000209c:	e2800001 	add	r0, r0, #1	; 0x1
300020a0:	e20330ff 	and	r3, r3, #255	; 0xff
300020a4:	1a000003 	bne	300020b8 <strncmp+0x3c>
300020a8:	e35c0000 	cmp	ip, #0	; 0x0
300020ac:	0a000001 	beq	300020b8 <strncmp+0x3c>
300020b0:	e2522001 	subs	r2, r2, #1	; 0x1
300020b4:	1afffff4 	bne	3000208c <strncmp+0x10>
300020b8:	e1a00c03 	mov	r0, r3, lsl #24
300020bc:	e1a00c40 	mov	r0, r0, asr #24
300020c0:	e49df004 	ldr	pc, [sp], #4

300020c4 <strchr>:
300020c4:	e5d02000 	ldrb	r2, [r0]
300020c8:	e20110ff 	and	r1, r1, #255	; 0xff
300020cc:	e1520001 	cmp	r2, r1
300020d0:	e1a03000 	mov	r3, r0
300020d4:	0a000005 	beq	300020f0 <strchr+0x2c>
300020d8:	e1a00002 	mov	r0, r2
300020dc:	e3500000 	cmp	r0, #0	; 0x0
300020e0:	01a0f00e 	moveq	pc, lr
300020e4:	e5f30001 	ldrb	r0, [r3, #1]!
300020e8:	e1500001 	cmp	r0, r1
300020ec:	1afffffa 	bne	300020dc <strchr+0x18>
300020f0:	e1a00003 	mov	r0, r3
300020f4:	e1a0f00e 	mov	pc, lr

300020f8 <strlen>:
300020f8:	e5d03000 	ldrb	r3, [r0]
300020fc:	e3530000 	cmp	r3, #0	; 0x0
30002100:	e1a02000 	mov	r2, r0
30002104:	0a000002 	beq	30002114 <strlen+0x1c>
30002108:	e5f03001 	ldrb	r3, [r0, #1]!
3000210c:	e3530000 	cmp	r3, #0	; 0x0
30002110:	1afffffc 	bne	30002108 <strlen+0x10>
30002114:	e0620000 	rsb	r0, r2, r0
30002118:	e1a0f00e 	mov	pc, lr

3000211c <strrchr>:
3000211c:	e92d4030 	stmdb	sp!, {r4, r5, lr}
30002120:	e1a04001 	mov	r4, r1
30002124:	e1a05000 	mov	r5, r0
30002128:	ebfffff2 	bl	300020f8 <strlen>
3000212c:	e20440ff 	and	r4, r4, #255	; 0xff
30002130:	e0800005 	add	r0, r0, r5
30002134:	e5d03000 	ldrb	r3, [r0]
30002138:	e1530004 	cmp	r3, r4
3000213c:	08bd8030 	ldmeqia	sp!, {r4, r5, pc}
30002140:	e2400001 	sub	r0, r0, #1	; 0x1
30002144:	e1500005 	cmp	r0, r5
30002148:	2afffff9 	bcs	30002134 <strrchr+0x18>
3000214c:	e3a00000 	mov	r0, #0	; 0x0
30002150:	e8bd8030 	ldmia	sp!, {r4, r5, pc}

30002154 <strnlen>:
30002154:	e2411001 	sub	r1, r1, #1	; 0x1
30002158:	e3710001 	cmn	r1, #1	; 0x1
3000215c:	e1a02000 	mov	r2, r0
30002160:	0a000009 	beq	3000218c <strnlen+0x38>
30002164:	e5d23000 	ldrb	r3, [r2]
30002168:	e3530000 	cmp	r3, #0	; 0x0
3000216c:	0a000006 	beq	3000218c <strnlen+0x38>
30002170:	e2411001 	sub	r1, r1, #1	; 0x1
30002174:	e3710001 	cmn	r1, #1	; 0x1
30002178:	e2800001 	add	r0, r0, #1	; 0x1
3000217c:	0a000002 	beq	3000218c <strnlen+0x38>
30002180:	e5d03000 	ldrb	r3, [r0]
30002184:	e3530000 	cmp	r3, #0	; 0x0
30002188:	1afffff8 	bne	30002170 <strnlen+0x1c>
3000218c:	e0620000 	rsb	r0, r2, r0
30002190:	e1a0f00e 	mov	pc, lr

30002194 <strspn>:
30002194:	e92d4010 	stmdb	sp!, {r4, lr}
30002198:	e3a0e000 	mov	lr, #0	; 0x0
3000219c:	e5d03000 	ldrb	r3, [r0]
300021a0:	e3530000 	cmp	r3, #0	; 0x0
300021a4:	0a00000a 	beq	300021d4 <strspn+0x40>
300021a8:	e5d14000 	ldrb	r4, [r1]
300021ac:	e3540000 	cmp	r4, #0	; 0x0
300021b0:	e1a02001 	mov	r2, r1
300021b4:	0a000008 	beq	300021dc <strspn+0x48>
300021b8:	e5d0c000 	ldrb	ip, [r0]
300021bc:	e1a03004 	mov	r3, r4
300021c0:	e15c0003 	cmp	ip, r3
300021c4:	0a00000d 	beq	30002200 <strspn+0x6c>
300021c8:	e5f23001 	ldrb	r3, [r2, #1]!
300021cc:	e3530000 	cmp	r3, #0	; 0x0
300021d0:	1afffffa 	bne	300021c0 <strspn+0x2c>
300021d4:	e1a0000e 	mov	r0, lr
300021d8:	e8bd8010 	ldmia	sp!, {r4, pc}
300021dc:	e5d13000 	ldrb	r3, [r1]
300021e0:	e3530000 	cmp	r3, #0	; 0x0
300021e4:	0afffffa 	beq	300021d4 <strspn+0x40>
300021e8:	e5f03001 	ldrb	r3, [r0, #1]!
300021ec:	e3530000 	cmp	r3, #0	; 0x0
300021f0:	e28ee001 	add	lr, lr, #1	; 0x1
300021f4:	1affffec 	bne	300021ac <strspn+0x18>
300021f8:	e1a0000e 	mov	r0, lr
300021fc:	e8bd8010 	ldmia	sp!, {r4, pc}
30002200:	e5d23000 	ldrb	r3, [r2]
30002204:	eafffff5 	b	300021e0 <strspn+0x4c>

30002208 <strpbrk>:
30002208:	e52de004 	str	lr, [sp, #-4]!
3000220c:	e5d03000 	ldrb	r3, [r0]
30002210:	e3530000 	cmp	r3, #0	; 0x0
30002214:	0a00000c 	beq	3000224c <strpbrk+0x44>
30002218:	e5d1e000 	ldrb	lr, [r1]
3000221c:	e25e3000 	subs	r3, lr, #0	; 0x0
30002220:	e1a02001 	mov	r2, r1
30002224:	0a000005 	beq	30002240 <strpbrk+0x38>
30002228:	e5d0c000 	ldrb	ip, [r0]
3000222c:	e15c0003 	cmp	ip, r3
30002230:	049df004 	ldreq	pc, [sp], #4
30002234:	e5f23001 	ldrb	r3, [r2, #1]!
30002238:	e3530000 	cmp	r3, #0	; 0x0
3000223c:	1afffffa 	bne	3000222c <strpbrk+0x24>
30002240:	e5f03001 	ldrb	r3, [r0, #1]!
30002244:	e3530000 	cmp	r3, #0	; 0x0
30002248:	1afffff3 	bne	3000221c <strpbrk+0x14>
3000224c:	e3a00000 	mov	r0, #0	; 0x0
30002250:	e49df004 	ldr	pc, [sp], #4

30002254 <strtok>:
30002254:	e92d4070 	stmdb	sp!, {r4, r5, r6, lr}
30002258:	e2504000 	subs	r4, r0, #0	; 0x0
3000225c:	e1a05001 	mov	r5, r1
30002260:	159f606c 	ldrne	r6, [pc, #108]	; 300022d4 <.text+0x22d4>
30002264:	0a000014 	beq	300022bc <strtok+0x68>
30002268:	e1a00004 	mov	r0, r4
3000226c:	e1a01005 	mov	r1, r5
30002270:	ebffffc7 	bl	30002194 <strspn>
30002274:	e7f43000 	ldrb	r3, [r4, r0]!
30002278:	e20330ff 	and	r3, r3, #255	; 0xff
3000227c:	e3530000 	cmp	r3, #0	; 0x0
30002280:	01a00003 	moveq	r0, r3
30002284:	05863000 	streq	r3, [r6]
30002288:	08bd8070 	ldmeqia	sp!, {r4, r5, r6, pc}
3000228c:	e1a01005 	mov	r1, r5
30002290:	e1a00004 	mov	r0, r4
30002294:	ebffffdb 	bl	30002208 <strpbrk>
30002298:	e3500000 	cmp	r0, #0	; 0x0
3000229c:	0a000003 	beq	300022b0 <strtok+0x5c>
300022a0:	e5d03000 	ldrb	r3, [r0]
300022a4:	e3530000 	cmp	r3, #0	; 0x0
300022a8:	13a03000 	movne	r3, #0	; 0x0
300022ac:	14c03001 	strneb	r3, [r0], #1
300022b0:	e5860000 	str	r0, [r6]
300022b4:	e1a00004 	mov	r0, r4
300022b8:	e8bd8070 	ldmia	sp!, {r4, r5, r6, pc}
300022bc:	e59f6010 	ldr	r6, [pc, #16]	; 300022d4 <.text+0x22d4>
300022c0:	e5964000 	ldr	r4, [r6]
300022c4:	e3540000 	cmp	r4, #0	; 0x0
300022c8:	01a00004 	moveq	r0, r4
300022cc:	1affffe5 	bne	30002268 <strtok+0x14>
300022d0:	e8bd8070 	ldmia	sp!, {r4, r5, r6, pc}
300022d4:	30004888 	andcc	r4, r0, r8, lsl #17

300022d8 <strsep>:
300022d8:	e92d4030 	stmdb	sp!, {r4, r5, lr}
300022dc:	e1a05000 	mov	r5, r0
300022e0:	e5904000 	ldr	r4, [r0]
300022e4:	e2540000 	subs	r0, r4, #0	; 0x0
300022e8:	e1a03004 	mov	r3, r4
300022ec:	0a000005 	beq	30002308 <strsep+0x30>
300022f0:	ebffffc4 	bl	30002208 <strpbrk>
300022f4:	e3500000 	cmp	r0, #0	; 0x0
300022f8:	13a03000 	movne	r3, #0	; 0x0
300022fc:	14c03001 	strneb	r3, [r0], #1
30002300:	e1a03004 	mov	r3, r4
30002304:	e5850000 	str	r0, [r5]
30002308:	e1a00003 	mov	r0, r3
3000230c:	e8bd8030 	ldmia	sp!, {r4, r5, pc}

30002310 <memset>:
30002310:	e2422001 	sub	r2, r2, #1	; 0x1
30002314:	e3720001 	cmn	r2, #1	; 0x1
30002318:	e1a03000 	mov	r3, r0
3000231c:	01a0f00e 	moveq	pc, lr
30002320:	e2422001 	sub	r2, r2, #1	; 0x1
30002324:	e3720001 	cmn	r2, #1	; 0x1
30002328:	e4c31001 	strb	r1, [r3], #1
3000232c:	1afffffb 	bne	30002320 <memset+0x10>
30002330:	e1a0f00e 	mov	pc, lr

30002334 <bcopy>:
30002334:	e2522001 	subs	r2, r2, #1	; 0x1
30002338:	31a0f00e 	movcc	pc, lr
3000233c:	e2422001 	sub	r2, r2, #1	; 0x1
30002340:	e4d03001 	ldrb	r3, [r0], #1
30002344:	e3720001 	cmn	r2, #1	; 0x1
30002348:	e4c13001 	strb	r3, [r1], #1
3000234c:	1afffffa 	bne	3000233c <bcopy+0x8>
30002350:	e1a0f00e 	mov	pc, lr

30002354 <memcpy>:
30002354:	e2422001 	sub	r2, r2, #1	; 0x1
30002358:	e3720001 	cmn	r2, #1	; 0x1
3000235c:	e1a0c000 	mov	ip, r0
30002360:	01a0f00e 	moveq	pc, lr
30002364:	e2422001 	sub	r2, r2, #1	; 0x1
30002368:	e4d13001 	ldrb	r3, [r1], #1
3000236c:	e3720001 	cmn	r2, #1	; 0x1
30002370:	e4cc3001 	strb	r3, [ip], #1
30002374:	1afffffa 	bne	30002364 <memcpy+0x10>
30002378:	e1a0f00e 	mov	pc, lr

3000237c <memmove>:
3000237c:	e1500001 	cmp	r0, r1
30002380:	8a000009 	bhi	300023ac <memmove+0x30>
30002384:	e2422001 	sub	r2, r2, #1	; 0x1
30002388:	e3720001 	cmn	r2, #1	; 0x1
3000238c:	e1a0c000 	mov	ip, r0
30002390:	01a0f00e 	moveq	pc, lr
30002394:	e2422001 	sub	r2, r2, #1	; 0x1
30002398:	e4d13001 	ldrb	r3, [r1], #1
3000239c:	e3720001 	cmn	r2, #1	; 0x1
300023a0:	e4cc3001 	strb	r3, [ip], #1
300023a4:	1afffffa 	bne	30002394 <memmove+0x18>
300023a8:	e1a0f00e 	mov	pc, lr
300023ac:	e0811002 	add	r1, r1, r2
300023b0:	e080c002 	add	ip, r0, r2
300023b4:	e2522001 	subs	r2, r2, #1	; 0x1
300023b8:	31a0f00e 	movcc	pc, lr
300023bc:	e2422001 	sub	r2, r2, #1	; 0x1
300023c0:	e5713001 	ldrb	r3, [r1, #-1]!
300023c4:	e3720001 	cmn	r2, #1	; 0x1
300023c8:	e56c3001 	strb	r3, [ip, #-1]!
300023cc:	1afffffa 	bne	300023bc <memmove+0x40>
300023d0:	e1a0f00e 	mov	pc, lr

300023d4 <memcmp>:
300023d4:	e252c000 	subs	ip, r2, #0	; 0x0
300023d8:	e3a02000 	mov	r2, #0	; 0x0
300023dc:	0a000007 	beq	30002400 <memcmp+0x2c>
300023e0:	e5d02000 	ldrb	r2, [r0]
300023e4:	e5d13000 	ldrb	r3, [r1]
300023e8:	e0522003 	subs	r2, r2, r3
300023ec:	e2800001 	add	r0, r0, #1	; 0x1
300023f0:	e2811001 	add	r1, r1, #1	; 0x1
300023f4:	1a000001 	bne	30002400 <memcmp+0x2c>
300023f8:	e25cc001 	subs	ip, ip, #1	; 0x1
300023fc:	1afffff7 	bne	300023e0 <memcmp+0xc>
30002400:	e1a00002 	mov	r0, r2
30002404:	e1a0f00e 	mov	pc, lr

30002408 <memscan>:
30002408:	e3520000 	cmp	r2, #0	; 0x0
3000240c:	01a0f00e 	moveq	pc, lr
30002410:	e5d03000 	ldrb	r3, [r0]
30002414:	e1530001 	cmp	r3, r1
30002418:	01a0f00e 	moveq	pc, lr
3000241c:	e2522001 	subs	r2, r2, #1	; 0x1
30002420:	e2800001 	add	r0, r0, #1	; 0x1
30002424:	1afffff9 	bne	30002410 <memscan+0x8>
30002428:	e1a0f00e 	mov	pc, lr

3000242c <strstr>:
3000242c:	e92d40f0 	stmdb	sp!, {r4, r5, r6, r7, lr}
30002430:	e1a05000 	mov	r5, r0
30002434:	e1a00001 	mov	r0, r1
30002438:	e1a07001 	mov	r7, r1
3000243c:	ebffff2d 	bl	300020f8 <strlen>
30002440:	e2506000 	subs	r6, r0, #0	; 0x0
30002444:	1a000001 	bne	30002450 <strstr+0x24>
30002448:	e1a00005 	mov	r0, r5
3000244c:	e8bd80f0 	ldmia	sp!, {r4, r5, r6, r7, pc}
30002450:	e1a00005 	mov	r0, r5
30002454:	ebffff27 	bl	300020f8 <strlen>
30002458:	e1500006 	cmp	r0, r6
3000245c:	e1a04000 	mov	r4, r0
30002460:	ba000009 	blt	3000248c <strstr+0x60>
30002464:	e1a00005 	mov	r0, r5
30002468:	e1a01007 	mov	r1, r7
3000246c:	e1a02006 	mov	r2, r6
30002470:	ebffffd7 	bl	300023d4 <memcmp>
30002474:	e3500000 	cmp	r0, #0	; 0x0
30002478:	e2444001 	sub	r4, r4, #1	; 0x1
3000247c:	0afffff1 	beq	30002448 <strstr+0x1c>
30002480:	e1540006 	cmp	r4, r6
30002484:	e2855001 	add	r5, r5, #1	; 0x1
30002488:	aafffff5 	bge	30002464 <strstr+0x38>
3000248c:	e3a00000 	mov	r0, #0	; 0x0
30002490:	e8bd80f0 	ldmia	sp!, {r4, r5, r6, r7, pc}

30002494 <memchr>:
30002494:	e2522001 	subs	r2, r2, #1	; 0x1
30002498:	3a000007 	bcc	300024bc <memchr+0x28>
3000249c:	e20110ff 	and	r1, r1, #255	; 0xff
300024a0:	e2400001 	sub	r0, r0, #1	; 0x1
300024a4:	e5f03001 	ldrb	r3, [r0, #1]!
300024a8:	e1530001 	cmp	r3, r1
300024ac:	e2422001 	sub	r2, r2, #1	; 0x1
300024b0:	01a0f00e 	moveq	pc, lr
300024b4:	e3720001 	cmn	r2, #1	; 0x1
300024b8:	1afffff9 	bne	300024a4 <memchr+0x10>
300024bc:	e3a00000 	mov	r0, #0	; 0x0
300024c0:	e1a0f00e 	mov	pc, lr

300024c4 <__subdf3>:
300024c4:	e2222102 	eor	r2, r2, #-2147483648	; 0x80000000

300024c8 <__adddf3>:
300024c8:	e1310003 	teq	r1, r3
300024cc:	0020c002 	eoreq	ip, r0, r2
300024d0:	033c0102 	teqeq	ip, #-2147483648	; 0x80000000
300024d4:	0a00009e 	beq	30002754 <__adddf3+0x28c>
300024d8:	e191c080 	orrs	ip, r1, r0, lsl #1
300024dc:	01a01003 	moveq	r1, r3
300024e0:	01a00002 	moveq	r0, r2
300024e4:	1193c082 	orrnes	ip, r3, r2, lsl #1
300024e8:	01a0f00e 	moveq	pc, lr
300024ec:	e92d4030 	stmdb	sp!, {r4, r5, lr}
300024f0:	e3a0c47f 	mov	ip, #2130706432	; 0x7f000000
300024f4:	e38cc60f 	orr	ip, ip, #15728640	; 0xf00000
300024f8:	e000400c 	and	r4, r0, ip
300024fc:	e002500c 	and	r5, r2, ip
30002500:	e134000c 	teq	r4, ip
30002504:	1135000c 	teqne	r5, ip
30002508:	0a00009c 	beq	30002780 <__adddf3+0x2b8>
3000250c:	e0555004 	subs	r5, r5, r4
30002510:	b2655000 	rsblt	r5, r5, #0	; 0x0
30002514:	da000006 	ble	30002534 <__adddf3+0x6c>
30002518:	e0844005 	add	r4, r4, r5
3000251c:	e0213003 	eor	r3, r1, r3
30002520:	e0202002 	eor	r2, r0, r2
30002524:	e0231001 	eor	r1, r3, r1
30002528:	e0220000 	eor	r0, r2, r0
3000252c:	e0213003 	eor	r3, r1, r3
30002530:	e0202002 	eor	r2, r0, r2
30002534:	e3550636 	cmp	r5, #56623104	; 0x3600000
30002538:	88bd8030 	ldmhiia	sp!, {r4, r5, pc}
3000253c:	e3100102 	tst	r0, #-2147483648	; 0x80000000
30002540:	e1c0008c 	bic	r0, r0, ip, lsl #1
30002544:	e3800601 	orr	r0, r0, #1048576	; 0x100000
30002548:	0a000001 	beq	30002554 <__adddf3+0x8c>
3000254c:	e2711000 	rsbs	r1, r1, #0	; 0x0
30002550:	e2e00000 	rsc	r0, r0, #0	; 0x0
30002554:	e3120102 	tst	r2, #-2147483648	; 0x80000000
30002558:	e1c2208c 	bic	r2, r2, ip, lsl #1
3000255c:	e3822601 	orr	r2, r2, #1048576	; 0x100000
30002560:	0a000001 	beq	3000256c <__adddf3+0xa4>
30002564:	e2733000 	rsbs	r3, r3, #0	; 0x0
30002568:	e2e22000 	rsc	r2, r2, #0	; 0x0
3000256c:	e1340005 	teq	r4, r5
30002570:	0a000071 	beq	3000273c <__adddf3+0x274>
30002574:	e3a0c000 	mov	ip, #0	; 0x0
30002578:	e1b05a25 	movs	r5, r5, lsr #20
3000257c:	0a000013 	beq	300025d0 <__adddf3+0x108>
30002580:	e3340601 	teq	r4, #1048576	; 0x100000
30002584:	0a000004 	beq	3000259c <__adddf3+0xd4>
30002588:	e1b01081 	movs	r1, r1, lsl #1
3000258c:	e0ac0080 	adc	r0, ip, r0, lsl #1
30002590:	e2444601 	sub	r4, r4, #1048576	; 0x100000
30002594:	e2555001 	subs	r5, r5, #1	; 0x1
30002598:	0a00000c 	beq	300025d0 <__adddf3+0x108>
3000259c:	e275e020 	rsbs	lr, r5, #32	; 0x20
300025a0:	ba000004 	blt	300025b8 <__adddf3+0xf0>
300025a4:	e1a0ce13 	mov	ip, r3, lsl lr
300025a8:	e1a03533 	mov	r3, r3, lsr r5
300025ac:	e1833e12 	orr	r3, r3, r2, lsl lr
300025b0:	e1a02552 	mov	r2, r2, asr r5
300025b4:	ea000005 	b	300025d0 <__adddf3+0x108>
300025b8:	e2455020 	sub	r5, r5, #32	; 0x20
300025bc:	e28ee020 	add	lr, lr, #32	; 0x20
300025c0:	e3530001 	cmp	r3, #1	; 0x1
300025c4:	e0acce12 	adc	ip, ip, r2, lsl lr
300025c8:	e1a03552 	mov	r3, r2, asr r5
300025cc:	e1a02042 	mov	r2, r2, asr #32
300025d0:	e0911003 	adds	r1, r1, r3
300025d4:	e0a00002 	adc	r0, r0, r2
300025d8:	e2105102 	ands	r5, r0, #-2147483648	; 0x80000000
300025dc:	5a000002 	bpl	300025ec <__adddf3+0x124>
300025e0:	e27cc000 	rsbs	ip, ip, #0	; 0x0
300025e4:	e2f11000 	rscs	r1, r1, #0	; 0x0
300025e8:	e2e00000 	rsc	r0, r0, #0	; 0x0
300025ec:	e3500601 	cmp	r0, #1048576	; 0x100000
300025f0:	3a000019 	bcc	3000265c <__adddf3+0x194>
300025f4:	e3500602 	cmp	r0, #2097152	; 0x200000
300025f8:	3a00000b 	bcc	3000262c <__adddf3+0x164>
300025fc:	e3500501 	cmp	r0, #4194304	; 0x400000
30002600:	3a000004 	bcc	30002618 <__adddf3+0x150>
30002604:	e1b000a0 	movs	r0, r0, lsr #1
30002608:	e1b01061 	movs	r1, r1, rrx
3000260c:	e1b0c06c 	movs	ip, ip, rrx
30002610:	238cc001 	orrcs	ip, ip, #1	; 0x1
30002614:	e2844601 	add	r4, r4, #1048576	; 0x100000
30002618:	e1b000a0 	movs	r0, r0, lsr #1
3000261c:	e1b01061 	movs	r1, r1, rrx
30002620:	e1b0c06c 	movs	ip, ip, rrx
30002624:	238cc001 	orrcs	ip, ip, #1	; 0x1
30002628:	e2844601 	add	r4, r4, #1048576	; 0x100000
3000262c:	e0911fac 	adds	r1, r1, ip, lsr #31
30002630:	e2a00000 	adc	r0, r0, #0	; 0x0
30002634:	e33c0102 	teq	ip, #-2147483648	; 0x80000000
30002638:	03c11001 	biceq	r1, r1, #1	; 0x1
3000263c:	e3100602 	tst	r0, #2097152	; 0x200000
30002640:	12844601 	addne	r4, r4, #1048576	; 0x100000
30002644:	e294c601 	adds	ip, r4, #1048576	; 0x100000
30002648:	4a000048 	bmi	30002770 <__adddf3+0x2a8>
3000264c:	e3c00603 	bic	r0, r0, #3145728	; 0x300000
30002650:	e1800004 	orr	r0, r0, r4
30002654:	e1800005 	orr	r0, r0, r5
30002658:	e8bd8030 	ldmia	sp!, {r4, r5, pc}
3000265c:	e3300000 	teq	r0, #0	; 0x0
30002660:	13e0300a 	mvnne	r3, #10	; 0xa
30002664:	03a03015 	moveq	r3, #21	; 0x15
30002668:	01a00001 	moveq	r0, r1
3000266c:	03a01000 	moveq	r1, #0	; 0x0
30002670:	e1a02000 	mov	r2, r0
30002674:	e1b0c820 	movs	ip, r0, lsr #16
30002678:	01a02802 	moveq	r2, r2, lsl #16
3000267c:	02833010 	addeq	r3, r3, #16	; 0x10
30002680:	e31204ff 	tst	r2, #-16777216	; 0xff000000
30002684:	01a02402 	moveq	r2, r2, lsl #8
30002688:	02833008 	addeq	r3, r3, #8	; 0x8
3000268c:	e312020f 	tst	r2, #-268435456	; 0xf0000000
30002690:	01a02202 	moveq	r2, r2, lsl #4
30002694:	02833004 	addeq	r3, r3, #4	; 0x4
30002698:	e3120103 	tst	r2, #-1073741824	; 0xc0000000
3000269c:	01a02102 	moveq	r2, r2, lsl #2
300026a0:	02833002 	addeq	r3, r3, #2	; 0x2
300026a4:	e3120102 	tst	r2, #-2147483648	; 0x80000000
300026a8:	02833001 	addeq	r3, r3, #1	; 0x1
300026ac:	e2532020 	subs	r2, r3, #32	; 0x20
300026b0:	aa000007 	bge	300026d4 <__adddf3+0x20c>
300026b4:	e292200c 	adds	r2, r2, #12	; 0xc
300026b8:	da000004 	ble	300026d0 <__adddf3+0x208>
300026bc:	e282c014 	add	ip, r2, #20	; 0x14
300026c0:	e262200c 	rsb	r2, r2, #12	; 0xc
300026c4:	e1a01c10 	mov	r1, r0, lsl ip
300026c8:	e1a00230 	mov	r0, r0, lsr r2
300026cc:	ea000004 	b	300026e4 <__adddf3+0x21c>
300026d0:	e2822014 	add	r2, r2, #20	; 0x14
300026d4:	d262c020 	rsble	ip, r2, #32	; 0x20
300026d8:	e1a00210 	mov	r0, r0, lsl r2
300026dc:	d1800c31 	orrle	r0, r0, r1, lsr ip
300026e0:	d1a01211 	movle	r1, r1, lsl r2
300026e4:	e0544a03 	subs	r4, r4, r3, lsl #20
300026e8:	caffffd7 	bgt	3000264c <__adddf3+0x184>
300026ec:	e1e04a44 	mvn	r4, r4, asr #20
300026f0:	e254401e 	subs	r4, r4, #30	; 0x1e
300026f4:	aa00000d 	bge	30002730 <__adddf3+0x268>
300026f8:	e294400c 	adds	r4, r4, #12	; 0xc
300026fc:	ca000005 	bgt	30002718 <__adddf3+0x250>
30002700:	e2844014 	add	r4, r4, #20	; 0x14
30002704:	e2642020 	rsb	r2, r4, #32	; 0x20
30002708:	e1a01431 	mov	r1, r1, lsr r4
3000270c:	e1811210 	orr	r1, r1, r0, lsl r2
30002710:	e1850430 	orr	r0, r5, r0, lsr r4
30002714:	e8bd8030 	ldmia	sp!, {r4, r5, pc}
30002718:	e264400c 	rsb	r4, r4, #12	; 0xc
3000271c:	e2642020 	rsb	r2, r4, #32	; 0x20
30002720:	e1a01231 	mov	r1, r1, lsr r2
30002724:	e1811410 	orr	r1, r1, r0, lsl r4
30002728:	e1a00005 	mov	r0, r5
3000272c:	e8bd8030 	ldmia	sp!, {r4, r5, pc}
30002730:	e1a01430 	mov	r1, r0, lsr r4
30002734:	e1a00005 	mov	r0, r5
30002738:	e8bd8030 	ldmia	sp!, {r4, r5, pc}
3000273c:	e3340000 	teq	r4, #0	; 0x0
30002740:	02200601 	eoreq	r0, r0, #1048576	; 0x100000
30002744:	02844601 	addeq	r4, r4, #1048576	; 0x100000
30002748:	e2222601 	eor	r2, r2, #1048576	; 0x100000
3000274c:	12455601 	subne	r5, r5, #1048576	; 0x100000
30002750:	eaffff87 	b	30002574 <__adddf3+0xac>
30002754:	e24cc601 	sub	ip, ip, #1048576	; 0x100000
30002758:	e000200c 	and	r2, r0, ip
3000275c:	e132000c 	teq	r2, ip
30002760:	038c0702 	orreq	r0, ip, #524288	; 0x80000
30002764:	13a00000 	movne	r0, #0	; 0x0
30002768:	e3a01000 	mov	r1, #0	; 0x0
3000276c:	e1a0f00e 	mov	pc, lr
30002770:	e385047f 	orr	r0, r5, #2130706432	; 0x7f000000
30002774:	e380060f 	orr	r0, r0, #15728640	; 0xf00000
30002778:	e3a01000 	mov	r1, #0	; 0x0
3000277c:	e8bd8030 	ldmia	sp!, {r4, r5, pc}
30002780:	e134000c 	teq	r4, ip
30002784:	11a00002 	movne	r0, r2
30002788:	11a01003 	movne	r1, r3
3000278c:	0135000c 	teqeq	r5, ip
30002790:	18bd8030 	ldmneia	sp!, {r4, r5, pc}
30002794:	e1914600 	orrs	r4, r1, r0, lsl #12
30002798:	01934602 	orreqs	r4, r3, r2, lsl #12
3000279c:	01300002 	teqeq	r0, r2
300027a0:	13850702 	orrne	r0, r5, #524288	; 0x80000
300027a4:	13a01000 	movne	r1, #0	; 0x0
300027a8:	e8bd8030 	ldmia	sp!, {r4, r5, pc}

300027ac <__floatunsidf>:
300027ac:	e3300000 	teq	r0, #0	; 0x0
300027b0:	03a01000 	moveq	r1, #0	; 0x0
300027b4:	01a0f00e 	moveq	pc, lr
300027b8:	e92d4030 	stmdb	sp!, {r4, r5, lr}
300027bc:	e3a04101 	mov	r4, #1073741824	; 0x40000000
300027c0:	e2844633 	add	r4, r4, #53477376	; 0x3300000
300027c4:	e3a05000 	mov	r5, #0	; 0x0
300027c8:	e1a01000 	mov	r1, r0
300027cc:	e3a00000 	mov	r0, #0	; 0x0
300027d0:	eaffffa1 	b	3000265c <__adddf3+0x194>

300027d4 <__floatsidf>:
300027d4:	e3300000 	teq	r0, #0	; 0x0
300027d8:	03a01000 	moveq	r1, #0	; 0x0
300027dc:	01a0f00e 	moveq	pc, lr
300027e0:	e92d4030 	stmdb	sp!, {r4, r5, lr}
300027e4:	e3a04101 	mov	r4, #1073741824	; 0x40000000
300027e8:	e2844633 	add	r4, r4, #53477376	; 0x3300000
300027ec:	e2105102 	ands	r5, r0, #-2147483648	; 0x80000000
300027f0:	42600000 	rsbmi	r0, r0, #0	; 0x0
300027f4:	e1a01000 	mov	r1, r0
300027f8:	e3a00000 	mov	r0, #0	; 0x0
300027fc:	eaffff96 	b	3000265c <__adddf3+0x194>

30002800 <__extendsfdf2>:
30002800:	e1b02080 	movs	r2, r0, lsl #1
30002804:	0a000007 	beq	30002828 <__extendsfdf2+0x28>
30002808:	e1a001c2 	mov	r0, r2, asr #3
3000280c:	e1a00060 	mov	r0, r0, rrx
30002810:	e1a01e02 	mov	r1, r2, lsl #28
30002814:	e21224ff 	ands	r2, r2, #-16777216	; 0xff000000
30002818:	0a000005 	beq	30002834 <__extendsfdf2+0x34>
3000281c:	e33204ff 	teq	r2, #-16777216	; 0xff000000
30002820:	1220030e 	eorne	r0, r0, #939524096	; 0x38000000
30002824:	e1a0f00e 	mov	pc, lr
30002828:	e1a00000 	nop			(mov r0,r0)
3000282c:	e3a01000 	mov	r1, #0	; 0x0
30002830:	e1a0f00e 	mov	pc, lr
30002834:	e92d4030 	stmdb	sp!, {r4, r5, lr}
30002838:	e3a0430e 	mov	r4, #939524096	; 0x38000000
3000283c:	e2844601 	add	r4, r4, #1048576	; 0x100000
30002840:	e2005102 	and	r5, r0, #-2147483648	; 0x80000000
30002844:	e3c00102 	bic	r0, r0, #-2147483648	; 0x80000000
30002848:	eaffff83 	b	3000265c <__adddf3+0x194>

3000284c <__muldf3>:
3000284c:	e92d4070 	stmdb	sp!, {r4, r5, r6, lr}
30002850:	e3a0c47f 	mov	ip, #2130706432	; 0x7f000000
30002854:	e38cc60f 	orr	ip, ip, #15728640	; 0xf00000
30002858:	e000400c 	and	r4, r0, ip
3000285c:	e002500c 	and	r5, r2, ip
30002860:	e134000c 	teq	r4, ip
30002864:	1135000c 	teqne	r5, ip
30002868:	0a0000a8 	beq	30002b10 <__muldf3+0x2c4>
3000286c:	e1916080 	orrs	r6, r1, r0, lsl #1
30002870:	11936082 	orrnes	r6, r3, r2, lsl #1
30002874:	0a00005e 	beq	300029f4 <__muldf3+0x1a8>
30002878:	e1b040a4 	movs	r4, r4, lsr #1
3000287c:	13350000 	teqne	r5, #0	; 0x0
30002880:	0a00008e 	beq	30002ac0 <__muldf3+0x274>
30002884:	e08440c5 	add	r4, r4, r5, asr #1
30002888:	e1300002 	teq	r0, r2
3000288c:	43844902 	orrmi	r4, r4, #32768	; 0x8000
30002890:	e1c0008c 	bic	r0, r0, ip, lsl #1
30002894:	e1c2208c 	bic	r2, r2, ip, lsl #1
30002898:	e3800601 	orr	r0, r0, #1048576	; 0x100000
3000289c:	e3822601 	orr	r2, r2, #1048576	; 0x100000
300028a0:	e92d0f80 	stmdb	sp!, {r7, r8, r9, sl, fp}
300028a4:	e1a07821 	mov	r7, r1, lsr #16
300028a8:	e1a08823 	mov	r8, r3, lsr #16
300028ac:	e1a09820 	mov	r9, r0, lsr #16
300028b0:	e1a0a822 	mov	sl, r2, lsr #16
300028b4:	e1c11807 	bic	r1, r1, r7, lsl #16
300028b8:	e1c33808 	bic	r3, r3, r8, lsl #16
300028bc:	e1c00809 	bic	r0, r0, r9, lsl #16
300028c0:	e1c2280a 	bic	r2, r2, sl, lsl #16
300028c4:	e00c0391 	mul	ip, r1, r3
300028c8:	e00b0891 	mul	fp, r1, r8
300028cc:	e3a0e000 	mov	lr, #0	; 0x0
300028d0:	e09cc80b 	adds	ip, ip, fp, lsl #16
300028d4:	e0aee82b 	adc	lr, lr, fp, lsr #16
300028d8:	e00b0397 	mul	fp, r7, r3
300028dc:	e09cc80b 	adds	ip, ip, fp, lsl #16
300028e0:	e0aee82b 	adc	lr, lr, fp, lsr #16
300028e4:	e00b0a91 	mul	fp, r1, sl
300028e8:	e3a05000 	mov	r5, #0	; 0x0
300028ec:	e09ee80b 	adds	lr, lr, fp, lsl #16
300028f0:	e0a5582b 	adc	r5, r5, fp, lsr #16
300028f4:	e00b0297 	mul	fp, r7, r2
300028f8:	e09ee80b 	adds	lr, lr, fp, lsl #16
300028fc:	e0a5582b 	adc	r5, r5, fp, lsr #16
30002900:	e00b0890 	mul	fp, r0, r8
30002904:	e09ee80b 	adds	lr, lr, fp, lsl #16
30002908:	e0a5582b 	adc	r5, r5, fp, lsr #16
3000290c:	e00b0399 	mul	fp, r9, r3
30002910:	e09ee80b 	adds	lr, lr, fp, lsl #16
30002914:	e0a5582b 	adc	r5, r5, fp, lsr #16
30002918:	e00b0a90 	mul	fp, r0, sl
3000291c:	e0060a99 	mul	r6, r9, sl
30002920:	e095580b 	adds	r5, r5, fp, lsl #16
30002924:	e0a6682b 	adc	r6, r6, fp, lsr #16
30002928:	e00b0299 	mul	fp, r9, r2
3000292c:	e095580b 	adds	r5, r5, fp, lsl #16
30002930:	e0a6682b 	adc	r6, r6, fp, lsr #16
30002934:	e00b0291 	mul	fp, r1, r2
30002938:	e09ee00b 	adds	lr, lr, fp
3000293c:	e00b0a97 	mul	fp, r7, sl
30002940:	e0b5500b 	adcs	r5, r5, fp
30002944:	e00b0390 	mul	fp, r0, r3
30002948:	e2a66000 	adc	r6, r6, #0	; 0x0
3000294c:	e09ee00b 	adds	lr, lr, fp
30002950:	e00b0899 	mul	fp, r9, r8
30002954:	e0b5500b 	adcs	r5, r5, fp
30002958:	e00b0897 	mul	fp, r7, r8
3000295c:	e2a66000 	adc	r6, r6, #0	; 0x0
30002960:	e09ee00b 	adds	lr, lr, fp
30002964:	e00b0290 	mul	fp, r0, r2
30002968:	e0b5500b 	adcs	r5, r5, fp
3000296c:	e2a66000 	adc	r6, r6, #0	; 0x0
30002970:	e8bd0f80 	ldmia	sp!, {r7, r8, r9, sl, fp}
30002974:	e33c0000 	teq	ip, #0	; 0x0
30002978:	138ee001 	orrne	lr, lr, #1	; 0x1
3000297c:	e1a00804 	mov	r0, r4, lsl #16
30002980:	e3c44902 	bic	r4, r4, #32768	; 0x8000
30002984:	e3160c02 	tst	r6, #512	; 0x200
30002988:	0a000004 	beq	300029a0 <__muldf3+0x154>
3000298c:	e2844702 	add	r4, r4, #524288	; 0x80000
30002990:	e1b060a6 	movs	r6, r6, lsr #1
30002994:	e1b05065 	movs	r5, r5, rrx
30002998:	e1b0e06e 	movs	lr, lr, rrx
3000299c:	238ee001 	orrcs	lr, lr, #1	; 0x1
300029a0:	e1800606 	orr	r0, r0, r6, lsl #12
300029a4:	e1800a25 	orr	r0, r0, r5, lsr #20
300029a8:	e1a01605 	mov	r1, r5, lsl #12
300029ac:	e1811a2e 	orr	r1, r1, lr, lsr #20
300029b0:	e244473e 	sub	r4, r4, #16252928	; 0xf80000
300029b4:	e254441f 	subs	r4, r4, #520093696	; 0x1f000000
300029b8:	da000011 	ble	30002a04 <__muldf3+0x1b8>
300029bc:	e1b0e60e 	movs	lr, lr, lsl #12
300029c0:	5a000005 	bpl	300029dc <__muldf3+0x190>
300029c4:	e2911001 	adds	r1, r1, #1	; 0x1
300029c8:	e2a00000 	adc	r0, r0, #0	; 0x0
300029cc:	e33e0102 	teq	lr, #-2147483648	; 0x80000000
300029d0:	03c11001 	biceq	r1, r1, #1	; 0x1
300029d4:	e3100602 	tst	r0, #2097152	; 0x200000
300029d8:	12844702 	addne	r4, r4, #524288	; 0x80000
300029dc:	e294c702 	adds	ip, r4, #524288	; 0x80000
300029e0:	e31c0101 	tst	ip, #1073741824	; 0x40000000
300029e4:	1a000055 	bne	30002b40 <__muldf3+0x2f4>
300029e8:	e3c00603 	bic	r0, r0, #3145728	; 0x300000
300029ec:	e1800084 	orr	r0, r0, r4, lsl #1
300029f0:	e8bd8070 	ldmia	sp!, {r4, r5, r6, pc}
300029f4:	e0200002 	eor	r0, r0, r2
300029f8:	e2000102 	and	r0, r0, #-2147483648	; 0x80000000
300029fc:	e3a01000 	mov	r1, #0	; 0x0
30002a00:	e8bd8070 	ldmia	sp!, {r4, r5, r6, pc}
30002a04:	e374076a 	cmn	r4, #27787264	; 0x1a80000
30002a08:	d3a01000 	movle	r1, #0	; 0x0
30002a0c:	d2000102 	andle	r0, r0, #-2147483648	; 0x80000000
30002a10:	d8bd8070 	ldmleia	sp!, {r4, r5, r6, pc}
30002a14:	e1e049c4 	mvn	r4, r4, asr #19
30002a18:	e254401e 	subs	r4, r4, #30	; 0x1e
30002a1c:	aa00001b 	bge	30002a90 <__muldf3+0x244>
30002a20:	e294400c 	adds	r4, r4, #12	; 0xc
30002a24:	ca00000d 	bgt	30002a60 <__muldf3+0x214>
30002a28:	e2844014 	add	r4, r4, #20	; 0x14
30002a2c:	e2645020 	rsb	r5, r4, #32	; 0x20
30002a30:	e1a03511 	mov	r3, r1, lsl r5
30002a34:	e1a01431 	mov	r1, r1, lsr r4
30002a38:	e1811510 	orr	r1, r1, r0, lsl r5
30002a3c:	e1b00080 	movs	r0, r0, lsl #1
30002a40:	e1a00430 	mov	r0, r0, lsr r4
30002a44:	e1a00060 	mov	r0, r0, rrx
30002a48:	e0911fa3 	adds	r1, r1, r3, lsr #31
30002a4c:	e2a00000 	adc	r0, r0, #0	; 0x0
30002a50:	e33e0000 	teq	lr, #0	; 0x0
30002a54:	03330102 	teqeq	r3, #-2147483648	; 0x80000000
30002a58:	03c11001 	biceq	r1, r1, #1	; 0x1
30002a5c:	e8bd8070 	ldmia	sp!, {r4, r5, r6, pc}
30002a60:	e264400c 	rsb	r4, r4, #12	; 0xc
30002a64:	e2645020 	rsb	r5, r4, #32	; 0x20
30002a68:	e1a03411 	mov	r3, r1, lsl r4
30002a6c:	e1a01531 	mov	r1, r1, lsr r5
30002a70:	e1811410 	orr	r1, r1, r0, lsl r4
30002a74:	e2000102 	and	r0, r0, #-2147483648	; 0x80000000
30002a78:	e0911fa3 	adds	r1, r1, r3, lsr #31
30002a7c:	e2a00000 	adc	r0, r0, #0	; 0x0
30002a80:	e33e0000 	teq	lr, #0	; 0x0
30002a84:	03330102 	teqeq	r3, #-2147483648	; 0x80000000
30002a88:	03c11001 	biceq	r1, r1, #1	; 0x1
30002a8c:	e8bd8070 	ldmia	sp!, {r4, r5, r6, pc}
30002a90:	e2645020 	rsb	r5, r4, #32	; 0x20
30002a94:	e1a06511 	mov	r6, r1, lsl r5
30002a98:	e1a03431 	mov	r3, r1, lsr r4
30002a9c:	e1833510 	orr	r3, r3, r0, lsl r5
30002aa0:	e1a01430 	mov	r1, r0, lsr r4
30002aa4:	e2000102 	and	r0, r0, #-2147483648	; 0x80000000
30002aa8:	e1c11430 	bic	r1, r1, r0, lsr r4
30002aac:	e0811fa3 	add	r1, r1, r3, lsr #31
30002ab0:	e196600e 	orrs	r6, r6, lr
30002ab4:	03330102 	teqeq	r3, #-2147483648	; 0x80000000
30002ab8:	03c11001 	biceq	r1, r1, #1	; 0x1
30002abc:	e8bd8070 	ldmia	sp!, {r4, r5, r6, pc}
30002ac0:	e3a0e000 	mov	lr, #0	; 0x0
30002ac4:	e3340000 	teq	r4, #0	; 0x0
30002ac8:	1a000008 	bne	30002af0 <__muldf3+0x2a4>
30002acc:	e2006102 	and	r6, r0, #-2147483648	; 0x80000000
30002ad0:	e1b01081 	movs	r1, r1, lsl #1
30002ad4:	e0ae0080 	adc	r0, lr, r0, lsl #1
30002ad8:	e3100601 	tst	r0, #1048576	; 0x100000
30002adc:	02444702 	subeq	r4, r4, #524288	; 0x80000
30002ae0:	0afffffa 	beq	30002ad0 <__muldf3+0x284>
30002ae4:	e1800006 	orr	r0, r0, r6
30002ae8:	e3350000 	teq	r5, #0	; 0x0
30002aec:	1affff64 	bne	30002884 <__muldf3+0x38>
30002af0:	e2026102 	and	r6, r2, #-2147483648	; 0x80000000
30002af4:	e1b03083 	movs	r3, r3, lsl #1
30002af8:	e0ae2082 	adc	r2, lr, r2, lsl #1
30002afc:	e3120601 	tst	r2, #1048576	; 0x100000
30002b00:	02455601 	subeq	r5, r5, #1048576	; 0x100000
30002b04:	0afffffa 	beq	30002af4 <__muldf3+0x2a8>
30002b08:	e1822006 	orr	r2, r2, r6
30002b0c:	eaffff5c 	b	30002884 <__muldf3+0x38>
30002b10:	e1916080 	orrs	r6, r1, r0, lsl #1
30002b14:	11936082 	orrnes	r6, r3, r2, lsl #1
30002b18:	0a00000d 	beq	30002b54 <__muldf3+0x308>
30002b1c:	e134000c 	teq	r4, ip
30002b20:	1a000001 	bne	30002b2c <__muldf3+0x2e0>
30002b24:	e1916600 	orrs	r6, r1, r0, lsl #12
30002b28:	1a000009 	bne	30002b54 <__muldf3+0x308>
30002b2c:	e135000c 	teq	r5, ip
30002b30:	1a000001 	bne	30002b3c <__muldf3+0x2f0>
30002b34:	e1936602 	orrs	r6, r3, r2, lsl #12
30002b38:	1a000005 	bne	30002b54 <__muldf3+0x308>
30002b3c:	e0200002 	eor	r0, r0, r2
30002b40:	e2000102 	and	r0, r0, #-2147483648	; 0x80000000
30002b44:	e380047f 	orr	r0, r0, #2130706432	; 0x7f000000
30002b48:	e380060f 	orr	r0, r0, #15728640	; 0xf00000
30002b4c:	e3a01000 	mov	r1, #0	; 0x0
30002b50:	e8bd8070 	ldmia	sp!, {r4, r5, r6, pc}
30002b54:	e3a0047f 	mov	r0, #2130706432	; 0x7f000000
30002b58:	e380073e 	orr	r0, r0, #16252928	; 0xf80000
30002b5c:	e8bd8070 	ldmia	sp!, {r4, r5, r6, pc}

30002b60 <__divdf3>:
30002b60:	e92d4070 	stmdb	sp!, {r4, r5, r6, lr}
30002b64:	e3a0c47f 	mov	ip, #2130706432	; 0x7f000000
30002b68:	e38cc60f 	orr	ip, ip, #15728640	; 0xf00000
30002b6c:	e000400c 	and	r4, r0, ip
30002b70:	e002500c 	and	r5, r2, ip
30002b74:	e134000c 	teq	r4, ip
30002b78:	1135000c 	teqne	r5, ip
30002b7c:	11916080 	orrnes	r6, r1, r0, lsl #1
30002b80:	11936082 	orrnes	r6, r3, r2, lsl #1
30002b84:	0a00007e 	beq	30002d84 <__divdf3+0x224>
30002b88:	e1b040a4 	movs	r4, r4, lsr #1
30002b8c:	13350000 	teqne	r5, #0	; 0x0
30002b90:	0a000067 	beq	30002d34 <__divdf3+0x1d4>
30002b94:	e04440c5 	sub	r4, r4, r5, asr #1
30002b98:	e020e002 	eor	lr, r0, r2
30002b9c:	e3a05201 	mov	r5, #268435456	; 0x10000000
30002ba0:	e1a02602 	mov	r2, r2, lsl #12
30002ba4:	e1852222 	orr	r2, r5, r2, lsr #4
30002ba8:	e1822c23 	orr	r2, r2, r3, lsr #24
30002bac:	e1b03403 	movs	r3, r3, lsl #8
30002bb0:	e1a00600 	mov	r0, r0, lsl #12
30002bb4:	01320005 	teqeq	r2, r5
30002bb8:	0a00004d 	beq	30002cf4 <__divdf3+0x194>
30002bbc:	e1855220 	orr	r5, r5, r0, lsr #4
30002bc0:	e1855c21 	orr	r5, r5, r1, lsr #24
30002bc4:	e1a06401 	mov	r6, r1, lsl #8
30002bc8:	e20e0102 	and	r0, lr, #-2147483648	; 0x80000000
30002bcc:	e1550002 	cmp	r5, r2
30002bd0:	01560003 	cmpeq	r6, r3
30002bd4:	2a000002 	bcs	30002be4 <__divdf3+0x84>
30002bd8:	e2444702 	sub	r4, r4, #524288	; 0x80000
30002bdc:	e1b020a2 	movs	r2, r2, lsr #1
30002be0:	e1a03063 	mov	r3, r3, rrx
30002be4:	e284441f 	add	r4, r4, #520093696	; 0x1f000000
30002be8:	e284473e 	add	r4, r4, #16252928	; 0xf80000
30002bec:	e374076a 	cmn	r4, #27787264	; 0x1a80000
30002bf0:	daffff80 	ble	300029f8 <__muldf3+0x1ac>
30002bf4:	e15400ac 	cmp	r4, ip, lsr #1
30002bf8:	aaffffd0 	bge	30002b40 <__muldf3+0x2f4>
30002bfc:	e0566003 	subs	r6, r6, r3
30002c00:	e0c55002 	sbc	r5, r5, r2
30002c04:	e1b020a2 	movs	r2, r2, lsr #1
30002c08:	e1a03063 	mov	r3, r3, rrx
30002c0c:	e3a01601 	mov	r1, #1048576	; 0x100000
30002c10:	e3a0c702 	mov	ip, #524288	; 0x80000
30002c14:	e056e003 	subs	lr, r6, r3
30002c18:	e0d5e002 	sbcs	lr, r5, r2
30002c1c:	20466003 	subcs	r6, r6, r3
30002c20:	21a0500e 	movcs	r5, lr
30002c24:	2181100c 	orrcs	r1, r1, ip
30002c28:	e1b020a2 	movs	r2, r2, lsr #1
30002c2c:	e1a03063 	mov	r3, r3, rrx
30002c30:	e056e003 	subs	lr, r6, r3
30002c34:	e0d5e002 	sbcs	lr, r5, r2
30002c38:	20466003 	subcs	r6, r6, r3
30002c3c:	21a0500e 	movcs	r5, lr
30002c40:	218110ac 	orrcs	r1, r1, ip, lsr #1
30002c44:	e1b020a2 	movs	r2, r2, lsr #1
30002c48:	e1a03063 	mov	r3, r3, rrx
30002c4c:	e056e003 	subs	lr, r6, r3
30002c50:	e0d5e002 	sbcs	lr, r5, r2
30002c54:	20466003 	subcs	r6, r6, r3
30002c58:	21a0500e 	movcs	r5, lr
30002c5c:	2181112c 	orrcs	r1, r1, ip, lsr #2
30002c60:	e1b020a2 	movs	r2, r2, lsr #1
30002c64:	e1a03063 	mov	r3, r3, rrx
30002c68:	e056e003 	subs	lr, r6, r3
30002c6c:	e0d5e002 	sbcs	lr, r5, r2
30002c70:	20466003 	subcs	r6, r6, r3
30002c74:	21a0500e 	movcs	r5, lr
30002c78:	218111ac 	orrcs	r1, r1, ip, lsr #3
30002c7c:	e195e006 	orrs	lr, r5, r6
30002c80:	0a00000d 	beq	30002cbc <__divdf3+0x15c>
30002c84:	e1a05205 	mov	r5, r5, lsl #4
30002c88:	e1855e26 	orr	r5, r5, r6, lsr #28
30002c8c:	e1a06206 	mov	r6, r6, lsl #4
30002c90:	e1a02182 	mov	r2, r2, lsl #3
30002c94:	e1822ea3 	orr	r2, r2, r3, lsr #29
30002c98:	e1a03183 	mov	r3, r3, lsl #3
30002c9c:	e1b0c22c 	movs	ip, ip, lsr #4
30002ca0:	1affffdb 	bne	30002c14 <__divdf3+0xb4>
30002ca4:	e3100601 	tst	r0, #1048576	; 0x100000
30002ca8:	1a000006 	bne	30002cc8 <__divdf3+0x168>
30002cac:	e1800001 	orr	r0, r0, r1
30002cb0:	e3a01000 	mov	r1, #0	; 0x0
30002cb4:	e3a0c102 	mov	ip, #-2147483648	; 0x80000000
30002cb8:	eaffffd5 	b	30002c14 <__divdf3+0xb4>
30002cbc:	e3100601 	tst	r0, #1048576	; 0x100000
30002cc0:	01800001 	orreq	r0, r0, r1
30002cc4:	03a01000 	moveq	r1, #0	; 0x0
30002cc8:	e3540000 	cmp	r4, #0	; 0x0
30002ccc:	da000016 	ble	30002d2c <__divdf3+0x1cc>
30002cd0:	e055c002 	subs	ip, r5, r2
30002cd4:	0056c003 	subeqs	ip, r6, r3
30002cd8:	e2b11000 	adcs	r1, r1, #0	; 0x0
30002cdc:	e2a00000 	adc	r0, r0, #0	; 0x0
30002ce0:	e33c0000 	teq	ip, #0	; 0x0
30002ce4:	03c11001 	biceq	r1, r1, #1	; 0x1
30002ce8:	e3c00601 	bic	r0, r0, #1048576	; 0x100000
30002cec:	e1800084 	orr	r0, r0, r4, lsl #1
30002cf0:	e8bd8070 	ldmia	sp!, {r4, r5, r6, pc}
30002cf4:	e20ee102 	and	lr, lr, #-2147483648	; 0x80000000
30002cf8:	e18e0620 	orr	r0, lr, r0, lsr #12
30002cfc:	e284441f 	add	r4, r4, #520093696	; 0x1f000000
30002d00:	e284473e 	add	r4, r4, #16252928	; 0xf80000
30002d04:	e15400ac 	cmp	r4, ip, lsr #1
30002d08:	aaffff8c 	bge	30002b40 <__muldf3+0x2f4>
30002d0c:	e3540000 	cmp	r4, #0	; 0x0
30002d10:	c1800084 	orrgt	r0, r0, r4, lsl #1
30002d14:	c8bd8070 	ldmgtia	sp!, {r4, r5, r6, pc}
30002d18:	e374076a 	cmn	r4, #27787264	; 0x1a80000
30002d1c:	daffff35 	ble	300029f8 <__muldf3+0x1ac>
30002d20:	e3800601 	orr	r0, r0, #1048576	; 0x100000
30002d24:	e3a0e000 	mov	lr, #0	; 0x0
30002d28:	eaffff39 	b	30002a14 <__muldf3+0x1c8>
30002d2c:	e185e006 	orr	lr, r5, r6
30002d30:	eaffff37 	b	30002a14 <__muldf3+0x1c8>
30002d34:	e3a0e000 	mov	lr, #0	; 0x0
30002d38:	e3340000 	teq	r4, #0	; 0x0
30002d3c:	1a000008 	bne	30002d64 <__divdf3+0x204>
30002d40:	e2006102 	and	r6, r0, #-2147483648	; 0x80000000
30002d44:	e1b01081 	movs	r1, r1, lsl #1
30002d48:	e0ae0080 	adc	r0, lr, r0, lsl #1
30002d4c:	e3100601 	tst	r0, #1048576	; 0x100000
30002d50:	02444702 	subeq	r4, r4, #524288	; 0x80000
30002d54:	0afffffa 	beq	30002d44 <__divdf3+0x1e4>
30002d58:	e1800006 	orr	r0, r0, r6
30002d5c:	e3350000 	teq	r5, #0	; 0x0
30002d60:	1affff8b 	bne	30002b94 <__divdf3+0x34>
30002d64:	e2026102 	and	r6, r2, #-2147483648	; 0x80000000
30002d68:	e1b03083 	movs	r3, r3, lsl #1
30002d6c:	e0ae2082 	adc	r2, lr, r2, lsl #1
30002d70:	e3120601 	tst	r2, #1048576	; 0x100000
30002d74:	02455601 	subeq	r5, r5, #1048576	; 0x100000
30002d78:	0afffffa 	beq	30002d68 <__divdf3+0x208>
30002d7c:	e1822006 	orr	r2, r2, r6
30002d80:	eaffff83 	b	30002b94 <__divdf3+0x34>
30002d84:	e134000c 	teq	r4, ip
30002d88:	0135000c 	teqeq	r5, ip
30002d8c:	0affff70 	beq	30002b54 <__muldf3+0x308>
30002d90:	e134000c 	teq	r4, ip
30002d94:	1a000002 	bne	30002da4 <__divdf3+0x244>
30002d98:	e1914600 	orrs	r4, r1, r0, lsl #12
30002d9c:	1affff6c 	bne	30002b54 <__muldf3+0x308>
30002da0:	eaffff65 	b	30002b3c <__muldf3+0x2f0>
30002da4:	e135000c 	teq	r5, ip
30002da8:	1a000002 	bne	30002db8 <__divdf3+0x258>
30002dac:	e1935602 	orrs	r5, r3, r2, lsl #12
30002db0:	1affff67 	bne	30002b54 <__muldf3+0x308>
30002db4:	eaffff0e 	b	300029f4 <__muldf3+0x1a8>
30002db8:	e1914080 	orrs	r4, r1, r0, lsl #1
30002dbc:	1affff5e 	bne	30002b3c <__muldf3+0x2f0>
30002dc0:	e1935082 	orrs	r5, r3, r2, lsl #1
30002dc4:	1affff0a 	bne	300029f4 <__muldf3+0x1a8>
30002dc8:	eaffff61 	b	30002b54 <__muldf3+0x308>

30002dcc <__gedf2>:
30002dcc:	e3e0c000 	mvn	ip, #0	; 0x0
30002dd0:	ea000002 	b	30002de0 <__cmpdf2+0x4>

30002dd4 <__ledf2>:
30002dd4:	e3a0c001 	mov	ip, #1	; 0x1
30002dd8:	ea000000 	b	30002de0 <__cmpdf2+0x4>

30002ddc <__cmpdf2>:
30002ddc:	e3a0c001 	mov	ip, #1	; 0x1
30002de0:	e92d4030 	stmdb	sp!, {r4, r5, lr}
30002de4:	e3a0e47f 	mov	lr, #2130706432	; 0x7f000000
30002de8:	e38ee60f 	orr	lr, lr, #15728640	; 0xf00000
30002dec:	e000400e 	and	r4, r0, lr
30002df0:	e002500e 	and	r5, r2, lr
30002df4:	e134000e 	teq	r4, lr
30002df8:	1135000e 	teqne	r5, lr
30002dfc:	0a000011 	beq	30002e48 <__cmpdf2+0x6c>
30002e00:	e191c080 	orrs	ip, r1, r0, lsl #1
30002e04:	0193c082 	orreqs	ip, r3, r2, lsl #1
30002e08:	11300002 	teqne	r0, r2
30002e0c:	01310003 	teqeq	r1, r3
30002e10:	03a00000 	moveq	r0, #0	; 0x0
30002e14:	08bd8030 	ldmeqia	sp!, {r4, r5, pc}
30002e18:	e1300002 	teq	r0, r2
30002e1c:	41a00fc0 	movmi	r0, r0, asr #31
30002e20:	43800001 	orrmi	r0, r0, #1	; 0x1
30002e24:	48bd8030 	ldmmiia	sp!, {r4, r5, pc}
30002e28:	e1540005 	cmp	r4, r5
30002e2c:	01a00600 	moveq	r0, r0, lsl #12
30002e30:	01500602 	cmpeq	r0, r2, lsl #12
30002e34:	01510003 	cmpeq	r1, r3
30002e38:	21a00fc2 	movcs	r0, r2, asr #31
30002e3c:	31e00fc2 	mvncc	r0, r2, asr #31
30002e40:	e3800001 	orr	r0, r0, #1	; 0x1
30002e44:	e8bd8030 	ldmia	sp!, {r4, r5, pc}
30002e48:	e134000e 	teq	r4, lr
30002e4c:	1a000001 	bne	30002e58 <__cmpdf2+0x7c>
30002e50:	e1911600 	orrs	r1, r1, r0, lsl #12
30002e54:	1a000003 	bne	30002e68 <__cmpdf2+0x8c>
30002e58:	e135000e 	teq	r5, lr
30002e5c:	1affffe7 	bne	30002e00 <__cmpdf2+0x24>
30002e60:	e1933602 	orrs	r3, r3, r2, lsl #12
30002e64:	0affffe5 	beq	30002e00 <__cmpdf2+0x24>
30002e68:	e1a0000c 	mov	r0, ip
30002e6c:	e8bd8030 	ldmia	sp!, {r4, r5, pc}

30002e70 <__truncdfsf2>:
30002e70:	e1912080 	orrs	r2, r1, r0, lsl #1
30002e74:	01a00062 	moveq	r0, r2, rrx
30002e78:	01a0f00e 	moveq	pc, lr
30002e7c:	e3a0c47f 	mov	ip, #2130706432	; 0x7f000000
30002e80:	e38cc60f 	orr	ip, ip, #15728640	; 0xf00000
30002e84:	e00c2000 	and	r2, ip, r0
30002e88:	e132000c 	teq	r2, ip
30002e8c:	0a000013 	beq	30002ee0 <__truncdfsf2+0x70>
30002e90:	e1c0000c 	bic	r0, r0, ip
30002e94:	e352030e 	cmp	r2, #939524096	; 0x38000000
30002e98:	9a000018 	bls	30002f00 <__truncdfsf2+0x90>
30002e9c:	e1b03ea1 	movs	r3, r1, lsr #29
30002ea0:	e0a33180 	adc	r3, r3, r0, lsl #3
30002ea4:	e1a01181 	mov	r1, r1, lsl #3
30002ea8:	e3310102 	teq	r1, #-2147483648	; 0x80000000
30002eac:	03c33001 	biceq	r3, r3, #1	; 0x1
30002eb0:	e3130502 	tst	r3, #8388608	; 0x800000
30002eb4:	12822601 	addne	r2, r2, #1048576	; 0x100000
30002eb8:	13c33502 	bicne	r3, r3, #8388608	; 0x800000
30002ebc:	e3a0c101 	mov	ip, #1073741824	; 0x40000000
30002ec0:	e38cc67f 	orr	ip, ip, #133169152	; 0x7f00000
30002ec4:	e152000c 	cmp	r2, ip
30002ec8:	2a000008 	bcs	30002ef0 <__truncdfsf2+0x80>
30002ecc:	e1b00080 	movs	r0, r0, lsl #1
30002ed0:	e1a02202 	mov	r2, r2, lsl #4
30002ed4:	e1830062 	orr	r0, r3, r2, rrx
30002ed8:	e2200101 	eor	r0, r0, #1073741824	; 0x40000000
30002edc:	e1a0f00e 	mov	pc, lr
30002ee0:	e1911600 	orrs	r1, r1, r0, lsl #12
30002ee4:	13a0047f 	movne	r0, #2130706432	; 0x7f000000
30002ee8:	13800503 	orrne	r0, r0, #12582912	; 0xc00000
30002eec:	11a0f00e 	movne	pc, lr
30002ef0:	e2000102 	and	r0, r0, #-2147483648	; 0x80000000
30002ef4:	e380047f 	orr	r0, r0, #2130706432	; 0x7f000000
30002ef8:	e3800502 	orr	r0, r0, #8388608	; 0x800000
30002efc:	e1a0f00e 	mov	pc, lr
30002f00:	e25225da 	subs	r2, r2, #914358272	; 0x36800000
30002f04:	d2000102 	andle	r0, r0, #-2147483648	; 0x80000000
30002f08:	d1a0f00e 	movle	pc, lr
30002f0c:	e3800601 	orr	r0, r0, #1048576	; 0x100000
30002f10:	e1a02a22 	mov	r2, r2, lsr #20
30002f14:	e2622019 	rsb	r2, r2, #25	; 0x19
30002f18:	e3520014 	cmp	r2, #20	; 0x14
30002f1c:	ca00000a 	bgt	30002f4c <__truncdfsf2+0xdc>
30002f20:	e262c020 	rsb	ip, r2, #32	; 0x20
30002f24:	e1a03c11 	mov	r3, r1, lsl ip
30002f28:	e1a01231 	mov	r1, r1, lsr r2
30002f2c:	e1811c10 	orr	r1, r1, r0, lsl ip
30002f30:	e1b00080 	movs	r0, r0, lsl #1
30002f34:	e1a00230 	mov	r0, r0, lsr r2
30002f38:	e1a00060 	mov	r0, r0, rrx
30002f3c:	e3330000 	teq	r3, #0	; 0x0
30002f40:	13811001 	orrne	r1, r1, #1	; 0x1
30002f44:	e3a0230e 	mov	r2, #939524096	; 0x38000000
30002f48:	eaffffd3 	b	30002e9c <__truncdfsf2+0x2c>
30002f4c:	e2622020 	rsb	r2, r2, #32	; 0x20
30002f50:	e262c020 	rsb	ip, r2, #32	; 0x20
30002f54:	e1a03211 	mov	r3, r1, lsl r2
30002f58:	e1a01c31 	mov	r1, r1, lsr ip
30002f5c:	e1811210 	orr	r1, r1, r0, lsl r2
30002f60:	e2000102 	and	r0, r0, #-2147483648	; 0x80000000
30002f64:	eafffff4 	b	30002f3c <__truncdfsf2+0xcc>

30002f68 <__subsf3>:
30002f68:	e2211102 	eor	r1, r1, #-2147483648	; 0x80000000

30002f6c <__addsf3>:
30002f6c:	e0202001 	eor	r2, r0, r1
30002f70:	e3320102 	teq	r2, #-2147483648	; 0x80000000
30002f74:	0a00005a 	beq	300030e4 <__addsf3+0x178>
30002f78:	e3d02102 	bics	r2, r0, #-2147483648	; 0x80000000
30002f7c:	01a00001 	moveq	r0, r1
30002f80:	13d12102 	bicnes	r2, r1, #-2147483648	; 0x80000000
30002f84:	01a0f00e 	moveq	pc, lr
30002f88:	e3a0c4ff 	mov	ip, #-16777216	; 0xff000000
30002f8c:	e00020ac 	and	r2, r0, ip, lsr #1
30002f90:	e00130ac 	and	r3, r1, ip, lsr #1
30002f94:	e13200ac 	teq	r2, ip, lsr #1
30002f98:	113300ac 	teqne	r3, ip, lsr #1
30002f9c:	0a000059 	beq	30003108 <__addsf3+0x19c>
30002fa0:	e0533002 	subs	r3, r3, r2
30002fa4:	c0822003 	addgt	r2, r2, r3
30002fa8:	c0201001 	eorgt	r1, r0, r1
30002fac:	c0210000 	eorgt	r0, r1, r0
30002fb0:	c0201001 	eorgt	r1, r0, r1
30002fb4:	b2633000 	rsblt	r3, r3, #0	; 0x0
30002fb8:	e3530532 	cmp	r3, #209715200	; 0xc800000
30002fbc:	81a0f00e 	movhi	pc, lr
30002fc0:	e3100102 	tst	r0, #-2147483648	; 0x80000000
30002fc4:	e3800502 	orr	r0, r0, #8388608	; 0x800000
30002fc8:	e3c004ff 	bic	r0, r0, #-16777216	; 0xff000000
30002fcc:	12600000 	rsbne	r0, r0, #0	; 0x0
30002fd0:	e3110102 	tst	r1, #-2147483648	; 0x80000000
30002fd4:	e3811502 	orr	r1, r1, #8388608	; 0x800000
30002fd8:	e3c114ff 	bic	r1, r1, #-16777216	; 0xff000000
30002fdc:	12611000 	rsbne	r1, r1, #0	; 0x0
30002fe0:	e1320003 	teq	r2, r3
30002fe4:	0a000038 	beq	300030cc <__addsf3+0x160>
30002fe8:	e1b03ba3 	movs	r3, r3, lsr #23
30002fec:	13320502 	teqne	r2, #8388608	; 0x800000
30002ff0:	11a00080 	movne	r0, r0, lsl #1
30002ff4:	12422502 	subne	r2, r2, #8388608	; 0x800000
30002ff8:	12433001 	subne	r3, r3, #1	; 0x1
30002ffc:	e1a0c351 	mov	ip, r1, asr r3
30003000:	e2633020 	rsb	r3, r3, #32	; 0x20
30003004:	e1a01311 	mov	r1, r1, lsl r3
30003008:	e080000c 	add	r0, r0, ip
3000300c:	e2103102 	ands	r3, r0, #-2147483648	; 0x80000000
30003010:	5a000001 	bpl	3000301c <__addsf3+0xb0>
30003014:	e2711000 	rsbs	r1, r1, #0	; 0x0
30003018:	e2e00000 	rsc	r0, r0, #0	; 0x0
3000301c:	e3500502 	cmp	r0, #8388608	; 0x800000
30003020:	3a000014 	bcc	30003078 <__addsf3+0x10c>
30003024:	e3500401 	cmp	r0, #16777216	; 0x1000000
30003028:	3a000007 	bcc	3000304c <__addsf3+0xe0>
3000302c:	e3500402 	cmp	r0, #33554432	; 0x2000000
30003030:	3a000002 	bcc	30003040 <__addsf3+0xd4>
30003034:	e1b000a0 	movs	r0, r0, lsr #1
30003038:	e1a01061 	mov	r1, r1, rrx
3000303c:	e2822502 	add	r2, r2, #8388608	; 0x800000
30003040:	e1b000a0 	movs	r0, r0, lsr #1
30003044:	e1a01061 	mov	r1, r1, rrx
30003048:	e2822502 	add	r2, r2, #8388608	; 0x800000
3000304c:	e0800fa1 	add	r0, r0, r1, lsr #31
30003050:	e3310102 	teq	r1, #-2147483648	; 0x80000000
30003054:	03c00001 	biceq	r0, r0, #1	; 0x1
30003058:	e3100401 	tst	r0, #16777216	; 0x1000000
3000305c:	12822502 	addne	r2, r2, #8388608	; 0x800000
30003060:	e352047f 	cmp	r2, #2130706432	; 0x7f000000
30003064:	8a000024 	bhi	300030fc <__addsf3+0x190>
30003068:	e3c00506 	bic	r0, r0, #25165824	; 0x1800000
3000306c:	e1800002 	orr	r0, r0, r2
30003070:	e1800003 	orr	r0, r0, r3
30003074:	e1a0f00e 	mov	pc, lr
30003078:	e1b0c620 	movs	ip, r0, lsr #12
3000307c:	01a00600 	moveq	r0, r0, lsl #12
30003080:	02422406 	subeq	r2, r2, #100663296	; 0x6000000
30003084:	e31008ff 	tst	r0, #16711680	; 0xff0000
30003088:	01a00400 	moveq	r0, r0, lsl #8
3000308c:	02422301 	subeq	r2, r2, #67108864	; 0x4000000
30003090:	e310060f 	tst	r0, #15728640	; 0xf00000
30003094:	01a00200 	moveq	r0, r0, lsl #4
30003098:	02422402 	subeq	r2, r2, #33554432	; 0x2000000
3000309c:	e3100503 	tst	r0, #12582912	; 0xc00000
300030a0:	01a00100 	moveq	r0, r0, lsl #2
300030a4:	02422401 	subeq	r2, r2, #16777216	; 0x1000000
300030a8:	e3100502 	tst	r0, #8388608	; 0x800000
300030ac:	01a00080 	moveq	r0, r0, lsl #1
300030b0:	02422502 	subeq	r2, r2, #8388608	; 0x800000
300030b4:	e3520000 	cmp	r2, #0	; 0x0
300030b8:	caffffea 	bgt	30003068 <__addsf3+0xfc>
300030bc:	e1e02bc2 	mvn	r2, r2, asr #23
300030c0:	e2822002 	add	r2, r2, #2	; 0x2
300030c4:	e1830230 	orr	r0, r3, r0, lsr r2
300030c8:	e1a0f00e 	mov	pc, lr
300030cc:	e3320000 	teq	r2, #0	; 0x0
300030d0:	02200502 	eoreq	r0, r0, #8388608	; 0x800000
300030d4:	02822502 	addeq	r2, r2, #8388608	; 0x800000
300030d8:	e2211502 	eor	r1, r1, #8388608	; 0x800000
300030dc:	12433502 	subne	r3, r3, #8388608	; 0x800000
300030e0:	eaffffc0 	b	30002fe8 <__addsf3+0x7c>
300030e4:	e3a0c4ff 	mov	ip, #-16777216	; 0xff000000
300030e8:	e00020ac 	and	r2, r0, ip, lsr #1
300030ec:	e13200ac 	teq	r2, ip, lsr #1
300030f0:	01a0014c 	moveq	r0, ip, asr #2
300030f4:	13a00000 	movne	r0, #0	; 0x0
300030f8:	e1a0f00e 	mov	pc, lr
300030fc:	e383047f 	orr	r0, r3, #2130706432	; 0x7f000000
30003100:	e3800502 	orr	r0, r0, #8388608	; 0x800000
30003104:	e1a0f00e 	mov	pc, lr
30003108:	e13200ac 	teq	r2, ip, lsr #1
3000310c:	11a00001 	movne	r0, r1
30003110:	013300ac 	teqeq	r3, ip, lsr #1
30003114:	11a0f00e 	movne	pc, lr
30003118:	e1b02480 	movs	r2, r0, lsl #9
3000311c:	01b02481 	moveqs	r2, r1, lsl #9
30003120:	01300001 	teqeq	r0, r1
30003124:	13830501 	orrne	r0, r3, #4194304	; 0x400000
30003128:	e1a0f00e 	mov	pc, lr

3000312c <__floatunsisf>:
3000312c:	e3a03000 	mov	r3, #0	; 0x0
30003130:	ea000001 	b	3000313c <__floatsisf+0x8>

30003134 <__floatsisf>:
30003134:	e2103102 	ands	r3, r0, #-2147483648	; 0x80000000
30003138:	42600000 	rsbmi	r0, r0, #0	; 0x0
3000313c:	e3300000 	teq	r0, #0	; 0x0
30003140:	01a0f00e 	moveq	pc, lr
30003144:	e3a01000 	mov	r1, #0	; 0x0
30003148:	e3a0244b 	mov	r2, #1258291200	; 0x4b000000
3000314c:	e310033f 	tst	r0, #-67108864	; 0xfc000000
30003150:	0affffb1 	beq	3000301c <__addsf3+0xb0>
30003154:	e310020f 	tst	r0, #-268435456	; 0xf0000000
30003158:	11a01e00 	movne	r1, r0, lsl #28
3000315c:	11a00220 	movne	r0, r0, lsr #4
30003160:	12822402 	addne	r2, r2, #33554432	; 0x2000000
30003164:	e3100303 	tst	r0, #201326592	; 0xc000000
30003168:	0affffab 	beq	3000301c <__addsf3+0xb0>
3000316c:	e1a01121 	mov	r1, r1, lsr #2
30003170:	e1811f00 	orr	r1, r1, r0, lsl #30
30003174:	e1a00120 	mov	r0, r0, lsr #2
30003178:	e2822401 	add	r2, r2, #16777216	; 0x1000000
3000317c:	eaffffa6 	b	3000301c <__addsf3+0xb0>

30003180 <__gesf2>:
30003180:	e3e03000 	mvn	r3, #0	; 0x0
30003184:	ea000002 	b	30003194 <__cmpsf2+0x4>

30003188 <__lesf2>:
30003188:	e3a03001 	mov	r3, #1	; 0x1
3000318c:	ea000000 	b	30003194 <__cmpsf2+0x4>

30003190 <__cmpsf2>:
30003190:	e3a03001 	mov	r3, #1	; 0x1
30003194:	e3a0c4ff 	mov	ip, #-16777216	; 0xff000000
30003198:	e00120ac 	and	r2, r1, ip, lsr #1
3000319c:	e13200ac 	teq	r2, ip, lsr #1
300031a0:	e00020ac 	and	r2, r0, ip, lsr #1
300031a4:	113200ac 	teqne	r2, ip, lsr #1
300031a8:	0a00000f 	beq	300031ec <__cmpsf2+0x5c>
300031ac:	e1803001 	orr	r3, r0, r1
300031b0:	e3d33102 	bics	r3, r3, #-2147483648	; 0x80000000
300031b4:	11300001 	teqne	r0, r1
300031b8:	03a00000 	moveq	r0, #0	; 0x0
300031bc:	01a0f00e 	moveq	pc, lr
300031c0:	41a00fc0 	movmi	r0, r0, asr #31
300031c4:	43800001 	orrmi	r0, r0, #1	; 0x1
300031c8:	41a0f00e 	movmi	pc, lr
300031cc:	e00130ac 	and	r3, r1, ip, lsr #1
300031d0:	e1520003 	cmp	r2, r3
300031d4:	01a00480 	moveq	r0, r0, lsl #9
300031d8:	01500481 	cmpeq	r0, r1, lsl #9
300031dc:	21a00fc1 	movcs	r0, r1, asr #31
300031e0:	31e00fc1 	mvncc	r0, r1, asr #31
300031e4:	e3800001 	orr	r0, r0, #1	; 0x1
300031e8:	e1a0f00e 	mov	pc, lr
300031ec:	e00120ac 	and	r2, r1, ip, lsr #1
300031f0:	e13200ac 	teq	r2, ip, lsr #1
300031f4:	1a000001 	bne	30003200 <__cmpsf2+0x70>
300031f8:	e1b02481 	movs	r2, r1, lsl #9
300031fc:	1a000004 	bne	30003214 <__cmpsf2+0x84>
30003200:	e00020ac 	and	r2, r0, ip, lsr #1
30003204:	e13200ac 	teq	r2, ip, lsr #1
30003208:	1affffe7 	bne	300031ac <__cmpsf2+0x1c>
3000320c:	e1b0c480 	movs	ip, r0, lsl #9
30003210:	0affffe5 	beq	300031ac <__cmpsf2+0x1c>
30003214:	e1a00003 	mov	r0, r3
30003218:	e1a0f00e 	mov	pc, lr